(dp0
S'Ec_biomass_iAF1260_core_59p81M'
p1
S'0.736701'
p2
sS'EX_pi_LPAREN_e_RPAREN_'
p3
S'-0.708202'
p4
sS'EX_co2_LPAREN_e_RPAREN_'
p5
S'17.832170'
p6
sS'EX_o2_LPAREN_e_RPAREN_'
p7
S'-16.265605'
p8
sS'EX_nh4_LPAREN_e_RPAREN_'
p9
S'-7.944612'
p10
sS'EX_h2o_LPAREN_e_RPAREN_'
p11
S'37.237627'
p12
sS'EX_h_LPAREN_e_RPAREN_'
p13
S'6.766124'
p14
sS'EX_glc_LPAREN_e_RPAREN_'
p15
S'-8.000000'
p16
s.