(lp0
S'PMEACPE'
p1
aS'ACPPATi160'
p2
aS'TARTt2_3'
p3
aS'EX_leu_DASH_L_LPAREN_e_RPAREN_'
p4
aS'EX_meoh_LPAREN_e_RPAREN_'
p5
aS'COELICHELINR2'
p6
aS'COELICHELINR3'
p7
aS'COELICHELINR1'
p8
aS'DAPAT'
p9
aS'EX_rmn_LPAREN_e_RPAREN_'
p10
aS'DADNt2'
p11
aS'FEOXAMER1'
p12
aS'EX_tungs_LPAREN_e_RPAREN_'
p13
aS'FGLU'
p14
aS'EX_ump_LPAREN_e_RPAREN_'
p15
aS'3HADai110'
p16
aS'EX_arab_DASH_L_LPAREN_e_RPAREN_'
p17
aS'EX_14glucan_LPAREN_e_RPAREN_'
p18
aS'3HAD180'
p19
aS'EX_pi_LPAREN_e_RPAREN_'
p20
aS'APG3PATi140'
p21
aS'EX_ptrc_LPAREN_e_RPAREN_'
p22
aS'3HAD170'
p23
aS'EX_1Dgali_LPAREN_e_RPAREN_'
p24
aS'EX_ppa_LPAREN_e_RPAREN_'
p25
aS'PAPAai150'
p26
aS'GLCRAL'
p27
aS'PACALDt2r'
p28
aS'DDPGA2'
p29
aS'DAPabc'
p30
aS'FE3Ri'
p31
aS'EX_abt_DASH_D_LPAREN_e_RPAREN_'
p32
aS'EX_tre_LPAREN_e_RPAREN_'
p33
aS'DM_2HYMEPH'
p34
aS'EX_nh4_LPAREN_e_RPAREN_'
p35
aS'EX_g3pg_LPAREN_e_RPAREN_'
p36
aS'3HADi180'
p37
aS'EX_arg_DASH_L_LPAREN_e_RPAREN_'
p38
aS'EX_malttr_LPAREN_e_RPAREN_'
p39
aS'EX_23ccmp_LPAREN_e_RPAREN_'
p40
aS'EX_indole_LPAREN_e_RPAREN_'
p41
aS'CBL1abc'
p42
aS'EX_mobd_LPAREN_e_RPAREN_'
p43
aS'PYDXt'
p44
aS'PYDXK'
p45
aS'RMI'
p46
aS'EX_glyc_LPAREN_e_RPAREN_'
p47
aS'EX_ni2_LPAREN_e_RPAREN_'
p48
aS'OPMEACPD'
p49
aS'APG3PATai150'
p50
aS'EX_n2o_LPAREN_e_RPAREN_'
p51
aS'EPMt2'
p52
aS'APG3PATi150'
p53
aS'3HAD160'
p54
aS'3HAD161'
p55
aS'3HADi70'
p56
aS'EX_xyl_DASH_D_LPAREN_e_RPAREN_'
p57
aS'ACPPAT141'
p58
aS'ACPPAT140'
p59
aS'PEAMNO'
p60
aS'EX_trp_DASH_L_LPAREN_e_RPAREN_'
p61
aS'DINSt2'
p62
aS'EX_sbt_DASH_D_LPAREN_e_RPAREN_'
p63
aS'DDGLCNt2r'
p64
aS'ACPPATi140'
p65
aS'MALACPMT'
p66
aS'GLNTRS'
p67
aS'PYRt2r'
p68
aS'3HADai90'
p69
aS'EX_asp_DASH_L_LPAREN_e_RPAREN_'
p70
aS'EX_taur_LPAREN_e_RPAREN_'
p71
aS'DM_ACT'
p72
aS'CITt3'
p73
aS'EX_zn2_LPAREN_e_RPAREN_'
p74
aS'EX_drib_LPAREN_e_RPAREN_'
p75
aS'PYDAMt'
p76
aS'FEOXAMER2'
p77
aS'EX_23cgmp_LPAREN_e_RPAREN_'
p78
aS'PYDAMK'
p79
aS'FEOXAMER3'
p80
aS'EX_fe3_LPAREN_e_RPAREN_'
p81
aS'PAPAi160'
p82
aS'X5PL3E'
p83
aS'PAPA170'
p84
aS'EX_spmd_LPAREN_e_RPAREN_'
p85
aS'ACPPATi180'
p86
aS'EX_k_LPAREN_e_RPAREN_'
p87
aS'3HAD110'
p88
aS'DM_GERMD'
p89
aS'DM_GERMA'
p90
aS'DM_GERMC'
p91
aS'DM_GERMB'
p92
aS'PROD2'
p93
aS'PAPAai170'
p94
aS'ACPPAT150'
p95
aS'EX_pacald_LPAREN_e_RPAREN_'
p96
aS'EX_ins_LPAREN_e_RPAREN_'
p97
aS'RBP4E'
p98
aS'APG3PATi180'
p99
aS'EX_5mtr_LPAREN_e_RPAREN_'
p100
aS'3HADi60'
p101
aS'DM_5DRIB'
p102
aS'GLCOAS'
p103
aS'EX_xtsn_LPAREN_e_RPAREN_'
p104
aS'EX_fru_LPAREN_e_RPAREN_'
p105
aS'DM_MSH'
p106
aS'3HADi140'
p107
aS'TAGSi170'
p108
aS'EX_gACT_LPAREN_e_RPAREN_'
p109
aS'EX_xan_LPAREN_e_RPAREN_'
p110
aS'EX_LalaDglu_LPAREN_e_RPAREN_'
p111
aS'APG3PATai170'
p112
aS'APG3PAT170'
p113
aS'EX_cl_LPAREN_e_RPAREN_'
p114
aS'EX_nac_LPAREN_e_RPAREN_'
p115
aS'EX_inost_LPAREN_e_RPAREN_'
p116
aS'PAPA160'
p117
aS'PAPA161'
p118
aS'EX_akg_LPAREN_e_RPAREN_'
p119
aS'DM_4CRSOL'
p120
aS'EX_chtbs_LPAREN_e_RPAREN_'
p121
aS'EX_din_LPAREN_e_RPAREN_'
p122
aS'3HAD100'
p123
aS'ACPPAT161'
p124
aS'ACPPAT160'
p125
aS'EX_glyclt_LPAREN_e_RPAREN_'
p126
aS'EX_hom_DASH_L_LPAREN_e_RPAREN_'
p127
aS'EX_succ_LPAREN_e_RPAREN_'
p128
aS'RAFt2'
p129
aS'EX_celb_LPAREN_e_RPAREN_'
p130
aS'EX_phe_DASH_L_LPAREN_e_RPAREN_'
p131
aS'DHFR'
p132
aS'OGMEACPD'
p133
aS'APG3PAT181'
p134
aS'APG3PAT180'
p135
aS'3HADi150'
p136
aS'SALCpts'
p137
aS'EX_bhb_LPAREN_e_RPAREN_'
p138
aS'APG3PAT161'
p139
aS'APG3PAT160'
p140
aS'EX_nmn_LPAREN_e_RPAREN_'
p141
aS'PAPA150'
p142
aS'FEOXAMBR1'
p143
aS'FEOXAMBR3'
p144
aS'FEOXAMBR2'
p145
aS'EX_4abut_LPAREN_e_RPAREN_'
p146
aS'3HAD130'
p147
aS'MGCH'
p148
aS'EX_acgam_LPAREN_e_RPAREN_'
p149
aS'ACPPAT170'
p150
aS'EX_23cump_LPAREN_e_RPAREN_'
p151
aS'RBK_L1'
p152
aS'EX_lipoate_LPAREN_e_RPAREN_'
p153
aS'INDOLEt2r'
p154
aS'EX_adn_LPAREN_e_RPAREN_'
p155
aS'TAGS120'
p156
aS'ACPPATai170'
p157
aS'INSt2r'
p158
aS'URIt2r'
p159
aS'ACPPATi150'
p160
aS'EX_cu_LPAREN_e_RPAREN_'
p161
aS'EX_cbi_LPAREN_e_RPAREN_'
p162
aS'3HADi160'
p163
aS'FEOXAMEUt'
p164
aS'DABTD'
p165
aS'EX_pydxn_LPAREN_e_RPAREN_'
p166
aS'APG3PAT150'
p167
aS'EX_glcr_LPAREN_e_RPAREN_'
p168
aS'PAPA140'
p169
aS'PAPA141'
p170
aS'CYRDAR'
p171
aS'EX_agm_LPAREN_e_RPAREN_'
p172
aS'Biomass_SCO'
p173
aS'3HAD120'
p174
aS'3HAD121'
p175
aS'5MTRt'
p176
aS'EX_desferrioxamE_LPAREN_e_RPAREN_'
p177
aS'EX_melt_LPAREN_e_RPAREN_'
p178
aS'EX_coelichelin_LPAREN_e_RPAREN_'
p179
aS'EX_g3pe_LPAREN_e_RPAREN_'
p180
aS'EX_damp_LPAREN_e_RPAREN_'
p181
aS'EX_fald_LPAREN_e_RPAREN_'
p182
aS'EX_thymd_LPAREN_e_RPAREN_'
p183
aS'EX_duri_LPAREN_e_RPAREN_'
p184
aS'DM_AACALD'
p185
aS'EX_ura_LPAREN_e_RPAREN_'
p186
aS'EX_lac_DASH_L_LPAREN_e_RPAREN_'
p187
aS'TAGSi160'
p188
aS'EX_aso3_LPAREN_e_RPAREN_'
p189
aS'EX_val_DASH_L_LPAREN_e_RPAREN_'
p190
aS'EX_ala_DASH_B_LPAREN_e_RPAREN_'
p191
aS'MELTt2'
p192
aS'CBIuabc'
p193
aS'DM_ACONM'
p194
aS'3HADai70'
p195
aS'EX_3cmp_LPAREN_e_RPAREN_'
p196
aS'EX_skm_LPAREN_e_RPAREN_'
p197
aS'EX_dimp_LPAREN_e_RPAREN_'
p198
aS'APG3PAT141'
p199
aS'APG3PAT140'
p200
aS'EX_CDA_LPAREN_e_RPAREN_'
p201
aS'NACt'
p202
aS'EX_3gmp_LPAREN_e_RPAREN_'
p203
aS'XYLK2'
p204
aS'EX_vanlt_LPAREN_e_RPAREN_'
p205
aS'THRPD'
p206
aS'THRPS'
p207
aS'EX_pydam_LPAREN_e_RPAREN_'
p208
aS'EX_ferrioxamB_LPAREN_e_RPAREN_'
p209
aS'EX_gmp_LPAREN_e_RPAREN_'
p210
aS'MNLD'
p211
aS'EX_cytd_LPAREN_e_RPAREN_'
p212
aS'EX_rib_DASH_D_LPAREN_e_RPAREN_'
p213
aS'EX_gsn_LPAREN_e_RPAREN_'
p214
aS'EX_acald_LPAREN_e_RPAREN_'
p215
aS'EX_cys_DASH_L_LPAREN_e_RPAREN_'
p216
aS'TECA3S'
p217
aS'TAGS141'
p218
aS'TAGS140'
p219
aS'EX_ile_DASH_L_LPAREN_e_RPAREN_'
p220
aS'EX_tartr_DASH_D_LPAREN_e_RPAREN_'
p221
aS'ATPM'
p222
aS'TAGSi150'
p223
aS'EX_etoh_LPAREN_e_RPAREN_'
p224
aS'EX_ser_DASH_L_LPAREN_e_RPAREN_'
p225
aS'OXPTNDH'
p226
aS'EX_dad_DASH_2_LPAREN_e_RPAREN_'
p227
aS'3HADi100'
p228
aS'EX_ala_DASH_L_LPAREN_e_RPAREN_'
p229
aS'EX_fe2_LPAREN_e_RPAREN_'
p230
aS'UAG2E'
p231
aS'DHAt'
p232
aS'DMBZIDS'
p233
aS'PPRDNDH'
p234
aS'EX_cit_LPAREN_e_RPAREN_'
p235
aS'EX_h2o2_LPAREN_e_RPAREN_'
p236
aS'MANt2'
p237
aS'EX_desferrioxamB_LPAREN_e_RPAREN_'
p238
aS'ADNt2r'
p239
aS'EX_no_LPAREN_e_RPAREN_'
p240
aS'TAGSai170'
p241
aS'3HADi110'
p242
aS'HEX4'
p243
aS'TECA2S'
p244
aS'DM_DALUA'
p245
aS'ACPPAT120'
p246
aS'EX_epm_LPAREN_e_RPAREN_'
p247
aS'EX_g3pc_LPAREN_e_RPAREN_'
p248
aS'PAPA180'
p249
aS'PAPA181'
p250
aS'5DOAN'
p251
aS'TAGS150'
p252
aS'EX_alaala_LPAREN_e_RPAREN_'
p253
aS'EX_ferrioxamE_LPAREN_e_RPAREN_'
p254
aS'CU2t'
p255
aS'TAGSi140'
p256
aS'EX_h_LPAREN_e_RPAREN_'
p257
aS'EX_salcn_LPAREN_e_RPAREN_'
p258
aS'EX_glu_DASH_L_LPAREN_e_RPAREN_'
p259
aS'PC3BS'
p260
aS'EX_3amp_LPAREN_e_RPAREN_'
p261
aS'EX_2ddglcn_LPAREN_e_RPAREN_'
p262
aS'CYTDt2r'
p263
aS'3HADai170'
p264
aS'PAPAi170'
p265
aS'GSNt2'
p266
aS'APG3PAT120'
p267
aS'EX_g3ps_LPAREN_e_RPAREN_'
p268
aS'EX_cd2_LPAREN_e_RPAREN_'
p269
aS'GUAt'
p270
aS'EX_btn_LPAREN_e_RPAREN_'
p271
aS'THYMt3r'
p272
aS'RMPA'
p273
aS'EX_ca2_LPAREN_e_RPAREN_'
p274
aS'PYDXNK'
p275
aS'3HAD40'
p276
aS'EX_glyald_LPAREN_e_RPAREN_'
p277
aS'EX_lac_DASH_D_LPAREN_e_RPAREN_'
p278
aS'EX_15dap_LPAREN_e_RPAREN_'
p279
aS'TECA1S'
p280
aS'TAGS161'
p281
aS'TAGS160'
p282
aS'TAGS181'
p283
aS'TAGS180'
p284
aS'DM_AMOB'
p285
aS'EX_cbl1_LPAREN_e_RPAREN_'
p286
aS'EX_so4_LPAREN_e_RPAREN_'
p287
aS'3HADi120'
p288
aS'TMK'
p289
aS'EX_pydx_LPAREN_e_RPAREN_'
p290
aS'HSST'
p291
aS'EX_galctn_DASH_D_LPAREN_e_RPAREN_'
p292
aS'EX_thym_LPAREN_e_RPAREN_'
p293
aS'EX_malthx_LPAREN_e_RPAREN_'
p294
aS'EX_na1_LPAREN_e_RPAREN_'
p295
aS'EX_gln_DASH_L_LPAREN_e_RPAREN_'
p296
aS'EX_mal_DASH_L_LPAREN_e_RPAREN_'
p297
aS'MYCTR'
p298
aS'GGLt2'
p299
aS'LIPOt2'
p300
aS'TAGSai150'
p301
aS'EX_ac_LPAREN_e_RPAREN_'
p302
aS'EX_thm_LPAREN_e_RPAREN_'
p303
aS'FORAMD'
p304
aS'CUt3'
p305
aS'DHNAI'
p306
aS'EX_dha_LPAREN_e_RPAREN_'
p307
aS'PAPAi180'
p308
aS'3HADi170'
p309
aS'GALIt2'
p310
aS'EX_man_LPAREN_e_RPAREN_'
p311
aS'EX_no3_LPAREN_e_RPAREN_'
p312
aS'TAGS170'
p313
aS'PMDPHT'
p314
aS'3HADi90'
p315
aS'3HAD80'
p316
aS'EX_glyb_LPAREN_e_RPAREN_'
p317
aS'PYDXNt'
p318
aS'DTMPK'
p319
aS'EX_etha_LPAREN_e_RPAREN_'
p320
aS'EX_5dglcn_LPAREN_e_RPAREN_'
p321
aS'EX_gua_LPAREN_e_RPAREN_'
p322
aS'EX_melib_LPAREN_e_RPAREN_'
p323
aS'ETHAt2'
p324
aS'3HADi130'
p325
aS'EX_3ump_LPAREN_e_RPAREN_'
p326
aS'3HAD60'
p327
aS'EX_mn2_LPAREN_e_RPAREN_'
p328
aS'EX_dgmp_LPAREN_e_RPAREN_'
p329
aS'3HADai150'
p330
aS'BHBt'
p331
aS'ADCL'
p332
aS'EX_lyx_DASH_L_LPAREN_e_RPAREN_'
p333
aS'EX_co2_LPAREN_e_RPAREN_'
p334
aS'EX_26dap_DASH_M_LPAREN_e_RPAREN_'
p335
aS'EX_malt_LPAREN_e_RPAREN_'
p336
aS'EX_g3pi_LPAREN_e_RPAREN_'
p337
aS'EX_pro_DASH_L_LPAREN_e_RPAREN_'
p338
aS'EX_malthp_LPAREN_e_RPAREN_'
p339
aS'EX_gal_LPAREN_e_RPAREN_'
p340
aS'EX_his_DASH_L_LPAREN_e_RPAREN_'
p341
aS'EX_thr_DASH_L_LPAREN_e_RPAREN_'
p342
aS'DCYTt2'
p343
aS'VANK'
p344
aS'ETHAAL'
p345
aS'3HADi80'
p346
aS'3HAD90'
p347
aS'EX_gly_LPAREN_e_RPAREN_'
p348
aS'EX_idon_DASH_L_LPAREN_e_RPAREN_'
p349
aS'EX_dcmp_LPAREN_e_RPAREN_'
p350
aS'DHNANT4'
p351
aS'EX_for_LPAREN_e_RPAREN_'
p352
aS'DURIt2'
p353
aS'EX_ade_LPAREN_e_RPAREN_'
p354
aS'EX_glcn_LPAREN_e_RPAREN_'
p355
aS'EX_h2s_LPAREN_e_RPAREN_'
p356
aS'EX_csn_LPAREN_e_RPAREN_'
p357
aS'3HAD70'
p358
aS'EX_maltttr_LPAREN_e_RPAREN_'
p359
aS'EX_dump_LPAREN_e_RPAREN_'
p360
aS'EX_o2_LPAREN_e_RPAREN_'
p361
aS'EX_acser_LPAREN_e_RPAREN_'
p362
aS'FEOXAMBUt'
p363
aS'UGLYCH'
p364
aS'ARAI'
p365
aS'DM_ECTOINE'
p366
aS'EX_imp_LPAREN_e_RPAREN_'
p367
aS'MELIBt2'
p368
aS'DRIBt'
p369
aS'EX_urea_LPAREN_e_RPAREN_'
p370
aS'EX_glyc_DASH_R_LPAREN_e_RPAREN_'
p371
aS'EX_cmp_LPAREN_e_RPAREN_'
p372
aS'EX_uri_LPAREN_e_RPAREN_'
p373
aS'PAPAi140'
p374
aS'EX_dcyt_LPAREN_e_RPAREN_'
p375
aS'EX_pnto_DASH_R_LPAREN_e_RPAREN_'
p376
aS'3HAD181'
p377
aS'EX_pyr_LPAREN_e_RPAREN_'
p378
aS'G3PCT'
p379
aS'EX_mnl_LPAREN_e_RPAREN_'
p380
aS'SERt2r'
p381
aS'T2DECAI'
p382
aS'EX_ferricoelichelin_LPAREN_e_RPAREN_'
p383
aS'EX_glyc3p_LPAREN_e_RPAREN_'
p384
aS'APTNAT'
p385
aS'ACPPAT181'
p386
aS'ACPPAT180'
p387
aS'EX_no2_LPAREN_e_RPAREN_'
p388
aS'TAGSi180'
p389
aS'EX_xmp_LPAREN_e_RPAREN_'
p390
aS'ASNTRS'
p391
aS'EX_cu2_LPAREN_e_RPAREN_'
p392
aS'PHYCBOXL'
p393
aS'EX_met_DASH_L_LPAREN_e_RPAREN_'
p394
aS'EX_dtmp_LPAREN_e_RPAREN_'
p395
aS'XTSNt2r'
p396
aS'EX_23camp_LPAREN_e_RPAREN_'
p397
aS'3HADai130'
p398
aS'EX_lys_DASH_L_LPAREN_e_RPAREN_'
p399
aS'TAGO'
p400
aS'LYXt2'
p401
aS'EX_glc_LPAREN_e_RPAREN_'
p402
aS'PAPAi150'
p403
aS'EX_fum_LPAREN_e_RPAREN_'
p404
aS'APG3PATi160'
p405
aS'3HAD150'
p406
aS'ASNN'
p407
aS'EX_raffin_LPAREN_e_RPAREN_'
p408
aS'EX_lcts_LPAREN_e_RPAREN_'
p409
aS'DM_RED'
p410
aS'EX_orn_LPAREN_e_RPAREN_'
p411
aS'EX_amp_LPAREN_e_RPAREN_'
p412
aS'EX_dgsn_LPAREN_e_RPAREN_'
p413
aS'ACPPATi170'
p414
aS'EX_ggl_LPAREN_e_RPAREN_'
p415
aS'EX_ala_DASH_D_LPAREN_e_RPAREN_'
p416
aS'BPNT'
p417
aS'EX_maltpt_LPAREN_e_RPAREN_'
p418
aS'CBLAT'
p419
aS'MACACI'
p420
aS'3HAD50'
p421
aS'EX_asn_DASH_L_LPAREN_e_RPAREN_'
p422
aS'EX_mg2_LPAREN_e_RPAREN_'
p423
aS'MALt3'
p424
aS'EX_tyr_DASH_L_LPAREN_e_RPAREN_'
p425
aS'EX_chol_LPAREN_e_RPAREN_'
p426
aS'DGSNt2'
p427
aS'THMDt2r'
p428
aS'PAPA120'
p429
aS'EX_cobalt2_LPAREN_e_RPAREN_'
p430
aS'EX_xylt_LPAREN_e_RPAREN_'
p431
aS'CADVt'
p432
aS'EX_h2o_LPAREN_e_RPAREN_'
p433
aS'APG3PATi170'
p434
aS'3HAD140'
p435
aS'3HAD141'
p436
aS'RZ5PP'
p437
aS'ADMDC'
p438
aS'BTNt2i'
p439
aS'EX_orot_LPAREN_e_RPAREN_'
p440
aS'ACPPATai150'
p441
aS'EX_alltn_LPAREN_e_RPAREN_'
p442
aS'FESR'
p443
aS'3HBCOAHL'
p444
a.