(lp0
S'EX_asn_L_LPAREN_e_RPAREN_'
p1
aS'ULA4Ntppi'
p2
aS'EX_uacgam_LPAREN_e_RPAREN_'
p3
aS'EX_hacolipa_LPAREN_e_RPAREN_'
p4
aS'ARBTNtex'
p5
aS'EX_rmn_LPAREN_e_RPAREN_'
p6
aS'UDCPPtppi'
p7
aS'EX_tungs_LPAREN_e_RPAREN_'
p8
aS'EX_frulys_LPAREN_e_RPAREN_'
p9
aS'EX_hdcea_LPAREN_e_RPAREN_'
p10
aS'23DAPPAt2pp'
p11
aS'EX_dcyt_LPAREN_e_RPAREN_'
p12
aS'EX_butso3_LPAREN_e_RPAREN_'
p13
aS'EX_ump_LPAREN_e_RPAREN_'
p14
aS'EX_3amp_LPAREN_e_RPAREN_'
p15
aS'EX_tcynt_LPAREN_e_RPAREN_'
p16
aS'EX_so2_LPAREN_e_RPAREN_'
p17
aS'EX_arg_L_LPAREN_e_RPAREN_'
p18
aS'EX_4hoxpacd_LPAREN_e_RPAREN_'
p19
aS'12PPDRtpp'
p20
aS'EX_14glucan_LPAREN_e_RPAREN_'
p21
aS'EX_acgam1p_LPAREN_e_RPAREN_'
p22
aS'EX_ptrc_LPAREN_e_RPAREN_'
p23
aS'EX_23cgmp_LPAREN_e_RPAREN_'
p24
aS'EX_ppa_LPAREN_e_RPAREN_'
p25
aS'EX_anhgm_LPAREN_e_RPAREN_'
p26
aS'EX_gthrd_LPAREN_e_RPAREN_'
p27
aS'EX_dad_2_LPAREN_e_RPAREN_'
p28
aS'EX_LalaDgluMdapDala_LPAREN_e_RPAREN_'
p29
aS'EX_tre_LPAREN_e_RPAREN_'
p30
aS'ASNabcpp'
p31
aS'MTRI'
p32
aS'EX_nh4_LPAREN_e_RPAREN_'
p33
aS'EX_g3pg_LPAREN_e_RPAREN_'
p34
aS'EX_mmet_LPAREN_e_RPAREN_'
p35
aS'EX_malttr_LPAREN_e_RPAREN_'
p36
aS'EX_23ccmp_LPAREN_e_RPAREN_'
p37
aS'EX_indole_LPAREN_e_RPAREN_'
p38
aS'EX_acmum_LPAREN_e_RPAREN_'
p39
aS'EX_mobd_LPAREN_e_RPAREN_'
p40
aS'EX_acmana_LPAREN_e_RPAREN_'
p41
aS'12DGR160tipp'
p42
aS'12DGR161tipp'
p43
aS'FFSD'
p44
aS'EX_glyc_LPAREN_e_RPAREN_'
p45
aS'EX_ni2_LPAREN_e_RPAREN_'
p46
aS'EX_34dhpac_LPAREN_e_RPAREN_'
p47
aS'EX_n2o_LPAREN_e_RPAREN_'
p48
aS'EX_tsul_LPAREN_e_RPAREN_'
p49
aS'EX_gthox_LPAREN_e_RPAREN_'
p50
aS'FE3HOXUtpp'
p51
aS'EX_tyr_L_LPAREN_e_RPAREN_'
p52
aS'EX_fecrm_LPAREN_e_RPAREN_'
p53
aS'MLDCP3App'
p54
aS'DKMPPD'
p55
aS'EX_glyc2p_LPAREN_e_RPAREN_'
p56
aS'EX_met_D_LPAREN_e_RPAREN_'
p57
aS'EX_fe3hox_LPAREN_e_RPAREN_'
p58
aS'EX_ala_L_LPAREN_e_RPAREN_'
p59
aS'EX_ethso3_LPAREN_e_RPAREN_'
p60
aS'NADPPPS'
p61
aS'ACGAM1PPpp'
p62
aS'CPGNUtex'
p63
aS'O16A4COLIPAtex'
p64
aS'EX_fe3_LPAREN_e_RPAREN_'
p65
aS'MLDCP2Bpp'
p66
aS'FE3DHBZR'
p67
aS'EX_alltn_LPAREN_e_RPAREN_'
p68
aS'EX_minohp_LPAREN_e_RPAREN_'
p69
aS'EX_zn2_LPAREN_e_RPAREN_'
p70
aS'NMNN'
p71
aS'FEOXAMUtpp'
p72
aS'FE3HOXR1'
p73
aS'FE3HOXR3'
p74
aS'FE3HOXR2'
p75
aS'EX_cpgn_un_LPAREN_e_RPAREN_'
p76
aS'EX_ala_B_LPAREN_e_RPAREN_'
p77
aS'ACGAL1PPpp'
p78
aS'12DGR120tipp'
p79
aS'EX_3hpppn_LPAREN_e_RPAREN_'
p80
aS'EX_LalaDgluMdap_LPAREN_e_RPAREN_'
p81
aS'EX_acgal_LPAREN_e_RPAREN_'
p82
aS'NMNt7pp'
p83
aS'FECRMR3'
p84
aS'EX_spmd_LPAREN_e_RPAREN_'
p85
aS'COLIPAtex'
p86
aS'PPALtpp'
p87
aS'URIC'
p88
aS'EX_k_LPAREN_e_RPAREN_'
p89
aS'HYXNtpp'
p90
aS'EX_fruur_LPAREN_e_RPAREN_'
p91
aS'EX_manglyc_LPAREN_e_RPAREN_'
p92
aS'EX_pacald_LPAREN_e_RPAREN_'
p93
aS'EX_ins_LPAREN_e_RPAREN_'
p94
aS'EX_enter_LPAREN_e_RPAREN_'
p95
aS'EX_pro_L_LPAREN_e_RPAREN_'
p96
aS'EX_feoxam_un_LPAREN_e_RPAREN_'
p97
aS'DM_5DRIB'
p98
aS'DKMPPD3'
p99
aS'DM_4HBA'
p100
aS'EX_xtsn_LPAREN_e_RPAREN_'
p101
aS'EX_fru_LPAREN_e_RPAREN_'
p102
aS'ENLIPAtex'
p103
aS'EX_hg2_LPAREN_e_RPAREN_'
p104
aS'OXAMTC'
p105
aS'EX_xan_LPAREN_e_RPAREN_'
p106
aS'EX_ascb_L_LPAREN_e_RPAREN_'
p107
aS'EX_cl_LPAREN_e_RPAREN_'
p108
aS'EX_nac_LPAREN_e_RPAREN_'
p109
aS'EX_peamn_LPAREN_e_RPAREN_'
p110
aS'EX_tmao_LPAREN_e_RPAREN_'
p111
aS'EX_akg_LPAREN_e_RPAREN_'
p112
aS'EX_26dap_M_LPAREN_e_RPAREN_'
p113
aS'MINOHPtexi'
p114
aS'EX_glcur1p_LPAREN_e_RPAREN_'
p115
aS'12DGR181tipp'
p116
aS'GUR1PPpp'
p117
aS'EX_din_LPAREN_e_RPAREN_'
p118
aS'DNMPPA'
p119
aS'CLPNH140pp'
p120
aS'EX_gam6p_LPAREN_e_RPAREN_'
p121
aS'EX_glyclt_LPAREN_e_RPAREN_'
p122
aS'K2L4Atex'
p123
aS'EX_fe3hox_un_LPAREN_e_RPAREN_'
p124
aS'EX_succ_LPAREN_e_RPAREN_'
p125
aS'EX_f6p_LPAREN_e_RPAREN_'
p126
aS'12DGR141tipp'
p127
aS'MME'
p128
aS'EX_pppn_LPAREN_e_RPAREN_'
p129
aS'EX_idon_L_LPAREN_e_RPAREN_'
p130
aS'EX_cpgn_LPAREN_e_RPAREN_'
p131
aS'EX_pi_LPAREN_e_RPAREN_'
p132
aS'EX_trp_L_LPAREN_e_RPAREN_'
p133
aS'EX_tyrp_LPAREN_e_RPAREN_'
p134
aS'EX_ttdcea_LPAREN_e_RPAREN_'
p135
aS'EX_nmn_LPAREN_e_RPAREN_'
p136
aS'EX_arbtn_fe3_LPAREN_e_RPAREN_'
p137
aS'EX_4abut_LPAREN_e_RPAREN_'
p138
aS'EX_arbtn_LPAREN_e_RPAREN_'
p139
aS'12DGR140tipp'
p140
aS'EX_acgam_LPAREN_e_RPAREN_'
p141
aS'EX_sulfac_LPAREN_e_RPAREN_'
p142
aS'CLPNH181pp'
p143
aS'EX_adn_LPAREN_e_RPAREN_'
p144
aS'EX_ala_D_LPAREN_e_RPAREN_'
p145
aS'FEENTERR1'
p146
aS'FEENTERR2'
p147
aS'FEENTERR3'
p148
aS'FECRMR1'
p149
aS'FECRMR2'
p150
aS'UPLA4FNF'
p151
aS'EX_cu_LPAREN_e_RPAREN_'
p152
aS'CLIPAtex'
p153
aS'EX_cbi_LPAREN_e_RPAREN_'
p154
aS'EX_g6p_LPAREN_e_RPAREN_'
p155
aS'EX_gal_bD_LPAREN_e_RPAREN_'
p156
aS'EX_phe_L_LPAREN_e_RPAREN_'
p157
aS'METSOX2abcpp'
p158
aS'EX_mso3_LPAREN_e_RPAREN_'
p159
aS'DHAtpp'
p160
aS'EX_3hcinnm_LPAREN_e_RPAREN_'
p161
aS'CPGNUtpp'
p162
aS'EX_enlipa_LPAREN_e_RPAREN_'
p163
aS'EX_eca4colipa_LPAREN_e_RPAREN_'
p164
aS'AGM4PCPpp'
p165
aS'EX_glcr_LPAREN_e_RPAREN_'
p166
aS'EX_g1p_LPAREN_e_RPAREN_'
p167
aS'EX_agm_LPAREN_e_RPAREN_'
p168
aS'EX_udpglcur_LPAREN_e_RPAREN_'
p169
aS'EX_o16a4colipa_LPAREN_e_RPAREN_'
p170
aS'EX_cytd_LPAREN_e_RPAREN_'
p171
aS'EX_inost_LPAREN_e_RPAREN_'
p172
aS'EX_asp_L_LPAREN_e_RPAREN_'
p173
aS'AACTOOR'
p174
aS'ARBTNtonex'
p175
aS'PYRt2rpp'
p176
aS'EX_g3pe_LPAREN_e_RPAREN_'
p177
aS'EX_damp_LPAREN_e_RPAREN_'
p178
aS'DM_HMFURN'
p179
aS'EX_ag_LPAREN_e_RPAREN_'
p180
aS'EX_fald_LPAREN_e_RPAREN_'
p181
aS'EX_his_L_LPAREN_e_RPAREN_'
p182
aS'EX_thymd_LPAREN_e_RPAREN_'
p183
aS'EX_duri_LPAREN_e_RPAREN_'
p184
aS'EX_cynt_LPAREN_e_RPAREN_'
p185
aS'SUCCt3pp'
p186
aS'EX_dms_LPAREN_e_RPAREN_'
p187
aS'EX_ura_LPAREN_e_RPAREN_'
p188
aS'EX_alaala_LPAREN_e_RPAREN_'
p189
aS'EX_glu_L_LPAREN_e_RPAREN_'
p190
aS'EX_aso3_LPAREN_e_RPAREN_'
p191
aS'PDXPP'
p192
aS'MTRK'
p193
aS'EX_dgmp_LPAREN_e_RPAREN_'
p194
aS'CYSDabcpp'
p195
aS'EX_metsox_S_L_LPAREN_e_RPAREN_'
p196
aS'EX_ttdca_LPAREN_e_RPAREN_'
p197
aS'EX_skm_LPAREN_e_RPAREN_'
p198
aS'EX_ocdca_LPAREN_e_RPAREN_'
p199
aS'EX_dimp_LPAREN_e_RPAREN_'
p200
aS'EX_galctn_L_LPAREN_e_RPAREN_'
p201
aS'EX_3gmp_LPAREN_e_RPAREN_'
p202
aS'EX_lys_L_LPAREN_e_RPAREN_'
p203
aS'PHEMEtiex'
p204
aS'EX_gam_LPAREN_e_RPAREN_'
p205
aS'EX_gmp_LPAREN_e_RPAREN_'
p206
aS'EX_gsn_LPAREN_e_RPAREN_'
p207
aS'EX_acald_LPAREN_e_RPAREN_'
p208
aS'EX_sucr_LPAREN_e_RPAREN_'
p209
aS'EX_fe3dcit_LPAREN_e_RPAREN_'
p210
aS'EX_23dappa_LPAREN_e_RPAREN_'
p211
aS'EX_r5p_LPAREN_e_RPAREN_'
p212
aS'ARBTNtpp'
p213
aS'EX_hxa_LPAREN_e_RPAREN_'
p214
aS'ATPM'
p215
aS'EX_lac_D_LPAREN_e_RPAREN_'
p216
aS'EX_etoh_LPAREN_e_RPAREN_'
p217
aS'EX_acgal1p_LPAREN_e_RPAREN_'
p218
aS'EX_lipa_LPAREN_e_RPAREN_'
p219
aS'EX_fe2_LPAREN_e_RPAREN_'
p220
aS'EX_cit_LPAREN_e_RPAREN_'
p221
aS'MLDEP1pp'
p222
aS'EX_lcts_LPAREN_e_RPAREN_'
p223
aS'THYMt3pp'
p224
aS'EX_xyl_D_LPAREN_e_RPAREN_'
p225
aS'DM_OXAM'
p226
aS'EX_no_LPAREN_e_RPAREN_'
p227
aS'DAPabcpp'
p228
aS'EX_acac_LPAREN_e_RPAREN_'
p229
aS'EX_thrp_LPAREN_e_RPAREN_'
p230
aS'HEX4'
p231
aS'EX_hdca_LPAREN_e_RPAREN_'
p232
aS'EX_galct_D_LPAREN_e_RPAREN_'
p233
aS'FEENTERtex'
p234
aS'EX_g3pc_LPAREN_e_RPAREN_'
p235
aS'EX_gtp_LPAREN_e_RPAREN_'
p236
aS'EX_gal1p_LPAREN_e_RPAREN_'
p237
aS'EX_12ppd_R_LPAREN_e_RPAREN_'
p238
aS'EX_udpg_LPAREN_e_RPAREN_'
p239
aS'EX_3cmp_LPAREN_e_RPAREN_'
p240
aS'EX_feoxam_LPAREN_e_RPAREN_'
p241
aS'EX_acnam_LPAREN_e_RPAREN_'
p242
aS'LCARR'
p243
aS'GUAtpp'
p244
aS'OPHHX3'
p245
aS'EX_leu_L_LPAREN_e_RPAREN_'
p246
aS'EX_ile_L_LPAREN_e_RPAREN_'
p247
aS'EX_h_LPAREN_e_RPAREN_'
p248
aS'EX_galur_LPAREN_e_RPAREN_'
p249
aS'CLPNH161pp'
p250
aS'ALATA_L'
p251
aS'EX_2ddglcn_LPAREN_e_RPAREN_'
p252
aS'MLDCP1App'
p253
aS'FE3HOXUtex'
p254
aS'EX_g3ps_LPAREN_e_RPAREN_'
p255
aS'SSALx'
p256
aS'OMMBLHX3'
p257
aS'EX_cd2_LPAREN_e_RPAREN_'
p258
aS'EX_xylu_L_LPAREN_e_RPAREN_'
p259
aS'EX_ca2_LPAREN_e_RPAREN_'
p260
aS'EX_mal_L_LPAREN_e_RPAREN_'
p261
aS'12PPDStpp'
p262
aS'EX_ocdcea_LPAREN_e_RPAREN_'
p263
aS'CLPNH180pp'
p264
aS'EX_glyald_LPAREN_e_RPAREN_'
p265
aS'EX_ddca_LPAREN_e_RPAREN_'
p266
aS'EX_fecrm_un_LPAREN_e_RPAREN_'
p267
aS'EX_15dap_LPAREN_e_RPAREN_'
p268
aS'EX_lipa_cold_LPAREN_e_RPAREN_'
p269
aS'EX_tartr_L_LPAREN_e_RPAREN_'
p270
aS'DM_AACALD'
p271
aS'EX_cbl1_LPAREN_e_RPAREN_'
p272
aS'FECRMUtex'
p273
aS'EX_rib_D_LPAREN_e_RPAREN_'
p274
aS'EX_lac_L_LPAREN_e_RPAREN_'
p275
aS'EX_crn_LPAREN_e_RPAREN_'
p276
aS'EX_dca_LPAREN_e_RPAREN_'
p277
aS'EX_lyx_L_LPAREN_e_RPAREN_'
p278
aS'LIPAtex'
p279
aS'EX_but_LPAREN_e_RPAREN_'
p280
aS'EX_thym_LPAREN_e_RPAREN_'
p281
aS'EX_thr_L_LPAREN_e_RPAREN_'
p282
aS'EX_udpgal_LPAREN_e_RPAREN_'
p283
aS'EX_malthx_LPAREN_e_RPAREN_'
p284
aS'EX_na1_LPAREN_e_RPAREN_'
p285
aS'EX_ppt_LPAREN_e_RPAREN_'
p286
aS'EX_ac_LPAREN_e_RPAREN_'
p287
aS'EX_thm_LPAREN_e_RPAREN_'
p288
aS'EX_arab_L_LPAREN_e_RPAREN_'
p289
aS'FEOXAMUtex'
p290
aS'EX_acolipa_LPAREN_e_RPAREN_'
p291
aS'EX_dha_LPAREN_e_RPAREN_'
p292
aS'EX_tym_LPAREN_e_RPAREN_'
p293
aS'MG2t3_2pp'
p294
aS'NADN'
p295
aS'ALDD4'
p296
aS'EX_man_LPAREN_e_RPAREN_'
p297
aS'EX_no3_LPAREN_e_RPAREN_'
p298
aS'EX_cgly_LPAREN_e_RPAREN_'
p299
aS'ACM6PH'
p300
aS'PMDPHT'
p301
aS'ACt2rpp'
p302
aS'O16GLCT2'
p303
aS'EX_glyb_LPAREN_e_RPAREN_'
p304
aS'EX_so4_LPAREN_e_RPAREN_'
p305
aS'EX_halipa_LPAREN_e_RPAREN_'
p306
aS'EX_udpacgal_LPAREN_e_RPAREN_'
p307
aS'EX_gdp_LPAREN_e_RPAREN_'
p308
aS'EX_etha_LPAREN_e_RPAREN_'
p309
aS'EX_5dglcn_LPAREN_e_RPAREN_'
p310
aS'EX_gua_LPAREN_e_RPAREN_'
p311
aS'EX_melib_LPAREN_e_RPAREN_'
p312
aS'CLPNH160pp'
p313
aS'PYDXPP'
p314
aS'MLDCP2App'
p315
aS'EX_dcmp_LPAREN_e_RPAREN_'
p316
aS'EX_23cump_LPAREN_e_RPAREN_'
p317
aS'EX_metsox_R_L_LPAREN_e_RPAREN_'
p318
aS'EX_3ump_LPAREN_e_RPAREN_'
p319
aS'EX_mn2_LPAREN_e_RPAREN_'
p320
aS'R1PK'
p321
aS'EX_galctn_D_LPAREN_e_RPAREN_'
p322
aS'NMNDA'
p323
aS'EX_co2_LPAREN_e_RPAREN_'
p324
aS'EX_malt_LPAREN_e_RPAREN_'
p325
aS'EX_g3pi_LPAREN_e_RPAREN_'
p326
aS'DHBSH'
p327
aS'GLYOX3'
p328
aS'EX_all_D_LPAREN_e_RPAREN_'
p329
aS'UNK3'
p330
aS'4PCPpp'
p331
aS'ETOHt2rpp'
p332
aS'CMPN'
p333
aS'EX_fe3dhbzs_LPAREN_e_RPAREN_'
p334
aS'EX_progly_LPAREN_e_RPAREN_'
p335
aS'EX_cyan_LPAREN_e_RPAREN_'
p336
aS'EX_gly_LPAREN_e_RPAREN_'
p337
aS'EX_o2s_LPAREN_e_RPAREN_'
p338
aS'EX_gbbtn_LPAREN_e_RPAREN_'
p339
aS'EX_glcur_LPAREN_e_RPAREN_'
p340
aS'EX_for_LPAREN_e_RPAREN_'
p341
aS'METSOX1abcpp'
p342
aS'EX_gal_LPAREN_e_RPAREN_'
p343
aS'EX_ade_LPAREN_e_RPAREN_'
p344
aS'EX_pser_L_LPAREN_e_RPAREN_'
p345
aS'CLPNH120pp'
p346
aS'EX_glcn_LPAREN_e_RPAREN_'
p347
aS'EX_h2s_LPAREN_e_RPAREN_'
p348
aS'FEOXAMR2'
p349
aS'FEOXAMR3'
p350
aS'EX_adocbl_LPAREN_e_RPAREN_'
p351
aS'FEOXAMR1'
p352
aS'EX_csn_LPAREN_e_RPAREN_'
p353
aS'EX_isetac_LPAREN_e_RPAREN_'
p354
aS'EX_maltttr_LPAREN_e_RPAREN_'
p355
aS'EX_hom_L_LPAREN_e_RPAREN_'
p356
aS'EX_dump_LPAREN_e_RPAREN_'
p357
aS'EX_o2_LPAREN_e_RPAREN_'
p358
aS'EX_acser_LPAREN_e_RPAREN_'
p359
aS'EX_feenter_LPAREN_e_RPAREN_'
p360
aS'OMPHHX3'
p361
aS'EX_imp_LPAREN_e_RPAREN_'
p362
aS'EX_urea_LPAREN_e_RPAREN_'
p363
aS'EX_sbt_D_LPAREN_e_RPAREN_'
p364
aS'EX_cmp_LPAREN_e_RPAREN_'
p365
aS'EX_uri_LPAREN_e_RPAREN_'
p366
aS'MDRPD'
p367
aS'EX_pyr_LPAREN_e_RPAREN_'
p368
aS'PACALDt2rpp'
p369
aS'EX_h2o2_LPAREN_e_RPAREN_'
p370
aS'EX_mnl_LPAREN_e_RPAREN_'
p371
aS'EX_glyc3p_LPAREN_e_RPAREN_'
p372
aS'ACOLIPAtex'
p373
aS'EX_ppal_LPAREN_e_RPAREN_'
p374
aS'HYPOE'
p375
aS'EX_galt_LPAREN_e_RPAREN_'
p376
aS'ECA4COLIPAtex'
p377
aS'EX_no2_LPAREN_e_RPAREN_'
p378
aS'EX_colipa_LPAREN_e_RPAREN_'
p379
aS'EX_xmp_LPAREN_e_RPAREN_'
p380
aS'EX_gln_L_LPAREN_e_RPAREN_'
p381
aS'EX_cu2_LPAREN_e_RPAREN_'
p382
aS'ARBTNR2'
p383
aS'ARBTNR3'
p384
aS'ARBTNR1'
p385
aS'MLDCP1Bpp'
p386
aS'EX_psclys_LPAREN_e_RPAREN_'
p387
aS'EX_dtmp_LPAREN_e_RPAREN_'
p388
aS'NACtpp'
p389
aS'EX_23camp_LPAREN_e_RPAREN_'
p390
aS'EX_met_L_LPAREN_e_RPAREN_'
p391
aS'EX_glc_LPAREN_e_RPAREN_'
p392
aS'CLPNH141pp'
p393
aS'EX_cys_D_LPAREN_e_RPAREN_'
p394
aS'EX_pnto_R_LPAREN_e_RPAREN_'
p395
aS'EX_fum_LPAREN_e_RPAREN_'
p396
aS'EX_h2_LPAREN_e_RPAREN_'
p397
aS'PDX5PO2'
p398
aS'EX_orn_LPAREN_e_RPAREN_'
p399
aS'EX_amp_LPAREN_e_RPAREN_'
p400
aS'EX_hxan_LPAREN_e_RPAREN_'
p401
aS'12DGR180tipp'
p402
aS'EX_dgsn_LPAREN_e_RPAREN_'
p403
aS'EX_dopa_LPAREN_e_RPAREN_'
p404
aS'XANtpp'
p405
aS'EX_cys_L_LPAREN_e_RPAREN_'
p406
aS'CPGNR2'
p407
aS'CPGNR3'
p408
aS'CPGNR1'
p409
aS'BPNT'
p410
aS'EX_maltpt_LPAREN_e_RPAREN_'
p411
aS'EX_fuc_L_LPAREN_e_RPAREN_'
p412
aS'EX_pheme_LPAREN_e_RPAREN_'
p413
aS'EX_tma_LPAREN_e_RPAREN_'
p414
aS'EX_ser_L_LPAREN_e_RPAREN_'
p415
aS'EX_octa_LPAREN_e_RPAREN_'
p416
aS'CYSabcpp'
p417
aS'ETHAt2pp'
p418
aS'EX_12ppd_S_LPAREN_e_RPAREN_'
p419
aS'FE3abcpp'
p420
aS'EX_man6p_LPAREN_e_RPAREN_'
p421
aS'EX_val_L_LPAREN_e_RPAREN_'
p422
aS'EX_chol_LPAREN_e_RPAREN_'
p423
aS'EX_cobalt2_LPAREN_e_RPAREN_'
p424
aS'EX_h2o_LPAREN_e_RPAREN_'
p425
aS'EX_glyc_R_LPAREN_e_RPAREN_'
p426
aS'Ec_biomass_iAF1260_core_59p81M'
p427
aS'EX_mal_D_LPAREN_e_RPAREN_'
p428
aS'EX_dmso_LPAREN_e_RPAREN_'
p429
aS'EX_orot_LPAREN_e_RPAREN_'
p430
aS'FECRMUtpp'
p431
aS'EX_ser_D_LPAREN_e_RPAREN_'
p432
aS'EX_mg2_LPAREN_e_RPAREN_'
p433
aS'H2SO'
p434
aS'EX_taur_LPAREN_e_RPAREN_'
p435
aS'MLDEP2pp'
p436
aS'EX_kdo2lipid4_LPAREN_e_RPAREN_'
p437
aS'EX_so3_LPAREN_e_RPAREN_'
p438
a.