(dp0
S'CSND'
p1
(lp2
S'SCO4634'
p3
asS'PMEACPE'
p4
(lp5
S''
p6
asS'TDPGDH'
p7
(lp8
S'SCO0749'
p9
aS'SCO6179'
p10
asS'GTPDPDP'
p11
(lp12
S'SCO3093'
p13
aS'SCO3348'
p14
asS'GLYBabc'
p15
(lp16
(lp17
S'SCO2930'
p18
aS'SCO2931'
p19
aS'SCO2932'
p20
aS'SCO2933'
p21
aa(lp22
S'SCO6062'
p23
aS'SCO6063'
p24
aS'SCO6064'
p25
aS'SCO6065'
p26
aasS'XTSNH'
p27
(lp28
S'SCO3779'
p29
asS'DDPA'
p30
(lp31
S'SCO2115'
p32
aS'SCO3210'
p33
asS'ACPPATi160'
p34
(lp35
g6
asS'P5CD'
p36
(lp37
S'SCO5520'
p38
asS'EAR110x'
p39
(lp40
S'SCO1814'
p41
asS'P5CR'
p42
(lp43
S'SCO3337'
p44
asS'SPRMS'
p45
(lp46
S'SCO3655'
p47
aS'SCO2455'
p48
asS'GLUTRR'
p49
(lp50
S'SCO3319'
p51
asS'GLUTRS'
p52
(lp53
S'SCO5547'
p54
asS'NTD1e'
p55
(lp56
S'SCO4152'
p57
asS'MALTTTRabc'
p58
(lp59
(lp60
S'SCO2229'
p61
aS'SCO2230'
p62
aS'SCO2231'
p63
aS'SCO4240'
p64
aasS'TARTt2_3'
p65
(lp66
g6
asS'3OAR70'
p67
(lp68
S'SCO1815'
p69
aS'SCO1345'
p70
aS'SCO1346'
p71
aS'SCO4501'
p72
aS'SCO1831'
p73
aS'SCO4681'
p74
aS'SCO0330'
p75
asS'MG2t'
p76
(lp77
S'SCO1667'
p78
aS'SCO5157'
p79
asS'KAS15'
p80
(lp81
S'SCO1271'
p82
aS'SCO2388'
p83
a(lp84
S'SCO2389'
p85
aS'SCO6564'
p86
aaS'SCO0549'
p87
aS'SCO1267'
p88
aS'SCO1272'
p89
asS'KAS14'
p90
(lp91
S'SCO0548'
p92
aS'SCO2390'
p93
aS'SCO1266'
p94
asS'CO2t'
p95
(lp96
S's0001'
p97
asS'G5SADs'
p98
(lp99
S's0001'
p100
asS'S2FE2SS2'
p101
(lp102
(lp103
S'SCO1921'
p104
aS'SCO1922'
p105
aS'SCO1924'
p106
aS'SCO1925'
p107
aasS'PANTS'
p108
(lp109
S'SCO3383'
p110
asS'E4PD'
p111
(lp112
S'SCO1947'
p113
aS'SCO7040'
p114
aS'SCO7511'
p115
asS'SCYSDS'
p116
(lp117
S'SCO1921'
p118
asS'MG2uabc'
p119
(lp120
S'SCO2499'
p121
asS'EX_leu_DASH_L_LPAREN_e_RPAREN_'
p122
(lp123
g6
asS'PUNP4'
p124
(lp125
S'SCO4917'
p126
asS'ACOAD1f'
p127
(lp128
S'SCO1690'
p129
aS'SCO2774'
p130
aS'SCO6787'
p131
aS'SCO2779'
p132
asS'ACLS'
p133
(lp134
(lp135
S'SCO5512'
p136
aS'SCO5513'
p137
aaS'SCO2769'
p138
asS'PUNP5'
p139
(lp140
S'SCO4917'
p141
asS'EX_meoh_LPAREN_e_RPAREN_'
p142
(lp143
g6
asS'GLYCTO1'
p144
(lp145
S'SCO2925'
p146
asS'ALLTNt2r'
p147
(lp148
S'SCO6417'
p149
aS'SCO7500'
p150
asS'GLYCTO3'
p151
(lp152
S'SCO2925'
p153
asS'AKGt2r'
p154
(lp155
S'SCO6690'
p156
asS'COELICHELINR2'
p157
(lp158
g6
asS'COELICHELINR3'
p159
(lp160
g6
asS'COELICHELINR1'
p161
(lp162
g6
asS'MEOHtr'
p163
(lp164
S's0001'
p165
asS'DAPAT'
p166
(lp167
g6
asS'EX_rmn_LPAREN_e_RPAREN_'
p168
(lp169
g6
asS'PPND'
p170
(lp171
S'SCO1761'
p172
aS'SCO3221'
p173
asS'DADNt2'
p174
(lp175
g6
asS'ADSL2r'
p176
(lp177
S'SCO1254'
p178
asS'AAMYLe'
p179
(lp180
S'SCO2226'
p181
asS'ACONIs'
p182
(lp183
S's0001'
p184
asS'UAGPT3'
p185
(lp186
S'SCO2084'
p187
asS'ASPTA'
p188
(lp189
S'SCO4645'
p190
aS'SCO3658'
p191
asS'EAR110y'
p192
(lp193
S'SCO1814'
p194
asS'GLYCLTt4'
p195
(lp196
S'SCO1822'
p197
asS'LEUTA'
p198
(lp199
S'SCO1546'
p200
aS'SCO5523'
p201
asS'EAR121y'
p202
(lp203
S'SCO1814'
p204
asS'EAR121x'
p205
(lp206
S'SCO1814'
p207
asS'FEOXAMER1'
p208
(lp209
g6
asS'EX_tungs_LPAREN_e_RPAREN_'
p210
(lp211
g6
asS'ACPpdsact'
p212
(lp213
S'SCO0046'
p214
asS'COBALT2t'
p215
(lp216
S'SCO1667'
p217
aS'SCO5157'
p218
asS'FGLU'
p219
(lp220
g6
asS'3OAS110'
p221
(lp222
S'SCO0548'
p223
aS'SCO2390'
p224
aS'SCO1266'
p225
asS'GLYCLTt2i'
p226
(lp227
S'SCO3029'
p228
asS'NH4t'
p229
(lp230
S'SCO5583'
p231
aS's0001'
p232
asS'3OARi60'
p233
(lp234
S'SCO1815'
p235
aS'SCO1345'
p236
aS'SCO1346'
p237
aS'SCO4501'
p238
aS'SCO1831'
p239
aS'SCO4681'
p240
aS'SCO0330'
p241
asS'IPPMIb'
p242
(lp243
(lp244
S'SCO5553'
p245
aS'SCO5554'
p246
aasS'EX_ump_LPAREN_e_RPAREN_'
p247
(lp248
g6
asS'3HADai110'
p249
(lp250
g6
asS'EX_arab_DASH_L_LPAREN_e_RPAREN_'
p251
(lp252
g6
asS'PPA_1'
p253
(lp254
S'SCO3547'
p255
asS'MOHMT'
p256
(lp257
S'SCO2256'
p258
asS'3OARi80'
p259
(lp260
S'SCO1815'
p261
aS'SCO1345'
p262
aS'SCO1346'
p263
aS'SCO4501'
p264
aS'SCO1831'
p265
aS'SCO4681'
p266
aS'SCO0330'
p267
asS'PSD170'
p268
(lp269
S'SCO6468'
p270
asS'DHDPS'
p271
(lp272
S'SCO1889'
p273
aS'SCO1912'
p274
aS'SCO5744'
p275
aS'SCO6292'
p276
asS'HCYSMT'
p277
(lp278
S'SCO6137'
p279
asS'ALATA_D2'
p280
(lp281
S'SCO1087'
p282
aS'SCO4837'
p283
aS'SCO5470'
p284
aS'SCO5364'
p285
asS'EDA'
p286
(lp287
S'SCO0852'
p288
aS'SCO2298'
p289
aS'SCO3473'
p290
aS'SCO3495'
p291
asS'APAT2r'
p292
(lp293
S'SCO5676'
p294
aS'SCO7034'
p295
aS'SCO3622'
p296
asS'PINOSi180'
p297
(lp298
S'SCO1527'
p299
asS'ACPSredL'
p300
(lp301
S'SCO4744'
p302
asS'ACPSredN'
p303
(lp304
S'SCO4744'
p305
asS'FEOXAMEexs'
p306
(lp307
S's0001'
p308
asS'FRUK'
p309
(lp310
S'SCO3197'
p311
asS'ACPSredQ'
p312
(lp313
S'SCO4744'
p314
asS'ILEDxi'
p315
(lp316
S'SCO4089'
p317
asS'CLPNSIIi140'
p318
(lp319
S'SCO1389'
p320
asS'SHSL2'
p321
(lp322
S'SCO1294'
p323
aS'SCO4958'
p324
asS'PRPPS'
p325
(lp326
S'SCO0782'
p327
aS'SCO3123'
p328
asS'SDPDS'
p329
(lp330
S'SCO5139'
p331
asS'XYLabc'
p332
(lp333
(lp334
S'SCO6009'
p335
aS'SCO6010'
p336
aS'SCO6011'
p337
aasS'EX_14glucan_LPAREN_e_RPAREN_'
p338
(lp339
g6
asS'FERO'
p340
(lp341
(lp342
S'SCO3439'
p343
aS'SCO3440'
p344
aS'SCO6712'
p345
aasS'PC11M'
p346
(lp347
S'SCO1855'
p348
asS'FTHFD'
p349
(lp350
S'SCO4403'
p351
asS'AGPAT120'
p352
(lp353
S'SCO0920'
p354
aS'SCO1085'
p355
aS'SCO1228'
p356
aS'SCO1566'
p357
aS'SCO1759'
p358
aS'SCO2122'
p359
asS'3HAD180'
p360
(lp361
g6
asS'EX_pi_LPAREN_e_RPAREN_'
p362
(lp363
g6
asS'GLUPRT'
p364
(lp365
S'SCO4086'
p366
asS'ACALDt'
p367
(lp368
S's0001'
p369
asS'PGSA150'
p370
(lp371
S'SCO5753'
p372
asS'APG3PATi140'
p373
(lp374
g6
asS'IVCOATA'
p375
(lp376
S'SCO1271'
p377
aS'SCO2388'
p378
a(lp379
S'SCO2389'
p380
aS'SCO6564'
p381
aaS'SCO0549'
p382
aS'SCO1267'
p383
aS'SCO1272'
p384
asS'PEPCK'
p385
(lp386
S'SCO4979'
p387
asS'REDS29'
p388
(lp389
S'SCO5889'
p390
asS'REDS24'
p391
(lp392
S'SCO5892'
p393
asS'REDS25'
p394
(lp395
S'SCO5892'
p396
asS'EX_ptrc_LPAREN_e_RPAREN_'
p397
(lp398
g6
asS'REDS27'
p399
(lp400
S'SCO5893'
p401
asS'DHORD5'
p402
(lp403
S'SCO1482'
p404
asS'REDS22'
p405
(lp406
S'SCO5894'
p407
asS'MCTP1B'
p408
(lp409
S'SCO3847'
p410
aS'SCO5301'
p411
asS'S4FE4ST'
p412
(lp413
(lp414
S'SCO1922'
p415
aS'SCO1924'
p416
aS'SCO1925'
p417
aasS'3HAD170'
p418
(lp419
g6
asS'S4FE4SR'
p420
(lp421
(lp422
S'SCO1922'
p423
aS'SCO1924'
p424
aS'SCO1925'
p425
aasS'EX_1Dgali_LPAREN_e_RPAREN_'
p426
(lp427
g6
asS'CFL'
p428
(lp429
S'SCO4506'
p430
asS'GMPS2'
p431
(lp432
S'SCO4785'
p433
asS'NAt3'
p434
(lp435
S'SCO1962'
p436
asS'EX_ppa_LPAREN_e_RPAREN_'
p437
(lp438
g6
asS'HPYRI'
p439
(lp440
S'SCO6206'
p441
asS'APHai170'
p442
(lp443
S'SCO5576'
p444
asS'AGMD'
p445
(lp446
S'SCO5527'
p447
asS'NTD6e'
p448
(lp449
S'SCO4152'
p450
asS'PAPAai150'
p451
(lp452
g6
asS'GLCRAL'
p453
(lp454
g6
asS'AGMT'
p455
(lp456
S'SCO2770'
p457
asS'PACALDt2r'
p458
(lp459
g6
asS'DDPGA2'
p460
(lp461
g6
asS'HMPK4'
p462
(lp463
S'SCO5563'
p464
asS'HMPK3'
p465
(lp466
S'SCO5563'
p467
asS'HMPK2'
p468
(lp469
S'SCO5563'
p470
asS'HMPK1'
p471
(lp472
S'SCO5563'
p473
asS'TAUDO'
p474
(lp475
S'SCO7507'
p476
aS'SCO7357'
p477
asS'DAPabc'
p478
(lp479
g6
asS'IDOND2'
p480
(lp481
S'SCO1682'
p482
asS'ACOAD2f'
p483
(lp484
S'SCO1690'
p485
aS'SCO2774'
p486
aS'SCO6787'
p487
aS'SCO2779'
p488
asS'PIt2r'
p489
(lp490
S'SCO4138'
p491
aS'SCO1845'
p492
asS'LYSTRS'
p493
(lp494
S'SCO3303'
p495
aS'SCO3397'
p496
aS'SCO6384'
p497
asS'FE3Ri'
p498
(lp499
g6
asS'DDGLK'
p500
(lp501
S'SCO0851'
p502
aS'SCO3474'
p503
aS'SCO3494'
p504
asS'EX_abt_DASH_D_LPAREN_e_RPAREN_'
p505
(lp506
g6
asS'EX_tre_LPAREN_e_RPAREN_'
p507
(lp508
g6
asS'ACONTa'
p509
(lp510
S'SCO5999'
p511
asS'ACONTb'
p512
(lp513
S'SCO5999'
p514
asS'KYN'
p515
(lp516
S'SCO3645'
p517
asS'PRFGS'
p518
(lp519
(lp520
S'SCO4077'
p521
aS'SCO4078'
p522
aS'SCO4079'
p523
aasS'EARi120x'
p524
(lp525
S'SCO1814'
p526
asS'EARi120y'
p527
(lp528
S'SCO1814'
p529
asS'PSCVT'
p530
(lp531
S'SCO5212'
p532
aS'SCO6819'
p533
asS'MTRI'
p534
(lp535
S'SCO3014'
p536
asS'DM_2HYMEPH'
p537
(lp538
g6
asS'EX_nh4_LPAREN_e_RPAREN_'
p539
(lp540
g6
asS'ADNK1'
p541
(lp542
S'SCO2158'
p543
asS'IBMi'
p544
(lp545
(lp546
S'SCO4800'
p547
aS'SCO5415'
p548
aaS'SCO6833'
p549
asS'3OAR60'
p550
(lp551
S'SCO1815'
p552
aS'SCO1345'
p553
aS'SCO1346'
p554
aS'SCO4501'
p555
aS'SCO1831'
p556
aS'SCO4681'
p557
aS'SCO0330'
p558
asS'EX_g3pg_LPAREN_e_RPAREN_'
p559
(lp560
g6
asS'3HADi180'
p561
(lp562
g6
asS'MAN1PT'
p563
(lp564
S'SCO1388'
p565
aS'SCO3039'
p566
asS'EX_arg_DASH_L_LPAREN_e_RPAREN_'
p567
(lp568
g6
asS'EARai170y'
p569
(lp570
S'SCO1814'
p571
asS'EARai170x'
p572
(lp573
S'SCO1814'
p574
asS'ADCYRS'
p575
(lp576
S'SCO1848'
p577
asS'EX_malttr_LPAREN_e_RPAREN_'
p578
(lp579
g6
asS'H2St1'
p580
(lp581
S's0001'
p582
asS'EAR120x'
p583
(lp584
S'SCO1814'
p585
asS'EAR120y'
p586
(lp587
S'SCO1814'
p588
asS'UPP3MT'
p589
(lp590
S'SCO1553'
p591
aS'SCO3317'
p592
asS'PC8XM'
p593
(lp594
S'SCO3282'
p595
asS'MLTP2'
p596
(lp597
S'SCO5444'
p598
asS'MLTP3'
p599
(lp600
S'SCO5444'
p601
asS'ECOAH12'
p602
(lp603
S'SCO6732'
p604
asS'EX_23ccmp_LPAREN_e_RPAREN_'
p605
(lp606
g6
asS'DMBZIDS'
p607
(lp608
g6
asS'CBL1abc'
p609
(lp610
g6
asS'SHCHF'
p611
(lp612
S'SCO1553'
p613
asS'EX_mobd_LPAREN_e_RPAREN_'
p614
(lp615
g6
asS'UM4PCP'
p616
(lp617
S'SCO6489'
p618
asS'UPP3S'
p619
(lp620
S'SCO3317'
p621
asS'ORNabc'
p622
(lp623
(lp624
S'SCO2828'
p625
aS'SCO2829'
p626
aS'SCO2830'
p627
aS'SCO2831'
p628
aasS'GLUN'
p629
(lp630
S'SCO7049'
p631
asS'FEOXAMBabc'
p632
(lp633
(lp634
S'SCO7398'
p635
aS'SCO7399'
p636
aS'SCO7400'
p637
aaS'SCO2780'
p638
asS'PSP_L'
p639
(lp640
S'SCO1808'
p641
asS'IGPS'
p642
(lp643
S'SCO2039'
p644
aS'SCO3211'
p645
asS'VALTRS'
p646
(lp647
S'SCO2615'
p648
asS'PYDXt'
p649
(lp650
g6
asS'PYDXK'
p651
(lp652
g6
asS'MALTTRabc'
p653
(lp654
(lp655
S'SCO2229'
p656
aS'SCO2230'
p657
aS'SCO2231'
p658
aS'SCO4240'
p659
aasS'OXCDC'
p660
(lp661
S'SCO6584'
p662
asS'RMK'
p663
(lp664
S'SCO0814'
p665
asS'RMI'
p666
(lp667
g6
asS'PSSAai170'
p668
(lp669
S'SCO6467'
p670
asS'EX_glyc_LPAREN_e_RPAREN_'
p671
(lp672
g6
asS'3OAS100'
p673
(lp674
S'SCO0548'
p675
aS'SCO2390'
p676
aS'SCO1266'
p677
asS'CYSDS'
p678
(lp679
S'SCO0435'
p680
aS'SCO0731'
p681
aS'SCO3920'
p682
asS'EX_ni2_LPAREN_e_RPAREN_'
p683
(lp684
g6
asS'FACOAL60'
p685
(lp686
S'SCO6196'
p687
aS'SCO6195'
p688
aS'SCO2131'
p689
aS'SCO2444'
p690
aS'SCO2561'
p691
aS'SCO2720'
p692
aS'SCO3436'
p693
aS'SCO4006'
p694
aS'SCO5983'
p695
aS'SCO6552'
p696
aS'SCO6968'
p697
aS'SCO7244'
p698
asS'ORNTA'
p699
(lp700
S'SCO1223'
p701
asS'GALIGH'
p702
(lp703
S'SCO0274'
p704
aS'SCO0541'
p705
asS'NI2uabc'
p706
(lp707
(lp708
S'SCO6451'
p709
aS'SCO6452'
p710
aS'SCO6453'
p711
aS'SCO6454'
p712
aaS'SCO2499'
p713
asS'CU2abc'
p714
(lp715
S'SCO6460'
p716
asS'3OASai70'
p717
(lp718
S'SCO0548'
p719
aS'SCO2390'
p720
aS'SCO1266'
p721
asS'3OARi90'
p722
(lp723
S'SCO1815'
p724
aS'SCO1345'
p725
aS'SCO1346'
p726
aS'SCO4501'
p727
aS'SCO1831'
p728
aS'SCO4681'
p729
aS'SCO0330'
p730
asS'OPMEACPD'
p731
(lp732
g6
asS'MCTP2A'
p733
(lp734
S'SCO3847'
p735
aS'SCO5301'
p736
aS'SCO2608'
p737
aS'SCO2090'
p738
asS'AMAOTr'
p739
(lp740
S'SCO1245'
p741
asS'OPMEACPS'
p742
(lp743
S'SCO0548'
p744
aS'SCO2390'
p745
aS'SCO1266'
p746
asS'OPMEACPR'
p747
(lp748
S'SCO0330'
p749
aS'SCO1345'
p750
aS'SCO1346'
p751
aS'SCO1815'
p752
aS'SCO1831'
p753
aS'SCO4501'
p754
aS'SCO4681'
p755
asS'LIPATPT'
p756
(lp757
S'SCO6423'
p758
asS'APG3PATai150'
p759
(lp760
g6
asS'3OASi180'
p761
(lp762
S'SCO0548'
p763
aS'SCO2390'
p764
aS'SCO1266'
p765
asS'EX_n2o_LPAREN_e_RPAREN_'
p766
(lp767
g6
asS'AGPATi170'
p768
(lp769
S'SCO0920'
p770
aS'SCO1085'
p771
aS'SCO1228'
p772
aS'SCO1566'
p773
aS'SCO1759'
p774
aS'SCO2122'
p775
asS'CLPNSIIi150'
p776
(lp777
S'SCO1389'
p778
asS'CCCR'
p779
(lp780
S'SCO6473'
p781
asS'HPPK2'
p782
(lp783
S'SCO3401'
p784
asS'D_DASH_LACt2'
p785
(lp786
S'SCO3029'
p787
asS'ACACT1r'
p788
(lp789
S'SCO5399'
p790
aS'SCO6788'
p791
aS'SCO1324'
p792
aS'SCO4502'
p793
aS'SCO6027'
p794
asS'PINOSai150'
p795
(lp796
S'SCO1527'
p797
asS'UREAt'
p798
(lp799
S'SCO1659'
p800
aS'SCO4057'
p801
asS'PFK_3'
p802
(lp803
S'SCO5426'
p804
aS'SCO2119'
p805
aS'SCO1214'
p806
asS'PFK_2'
p807
(lp808
S'SCO5426'
p809
aS'SCO2119'
p810
aS'SCO1214'
p811
asS'AGPATai170'
p812
(lp813
S'SCO0920'
p814
aS'SCO1085'
p815
aS'SCO1228'
p816
aS'SCO1566'
p817
aS'SCO1759'
p818
aS'SCO2122'
p819
asS'Piuabc'
p820
(lp821
(lp822
S'SCO4139'
p823
aS'SCO4140'
p824
aS'SCO4141'
p825
aS'SCO4142'
p826
aaS'SCO2428'
p827
a(lp828
S'SCO6814'
p829
aS'SCO6815'
p830
aS'SCO6816'
p831
aasS'NTPTP1'
p832
(lp833
S'SCO2470'
p834
asS'EARi60x'
p835
(lp836
S'SCO1814'
p837
asS'EARi60y'
p838
(lp839
S'SCO1814'
p840
asS'PSD140'
p841
(lp842
S'SCO6468'
p843
asS'PSD141'
p844
(lp845
S'SCO6468'
p846
asS'GLYK'
p847
(lp848
S'SCO0509'
p849
aS'SCO1660'
p850
aS'SCO7004'
p851
asS'EPMt2'
p852
(lp853
g6
asS'MECDPDH2'
p854
(lp855
S'SCO5696'
p856
aS'SCO6767'
p857
asS'IGPDH'
p858
(lp859
S'SCO2052'
p860
asS'APG3PATi150'
p861
(lp862
g6
asS'REDS33'
p863
(lp864
(lp865
S'SCO5878'
p866
aS'SCO5890'
p867
aasS'REDS32'
p868
(lp869
(lp870
S'SCO2387'
p871
aS'SCO5890'
p872
aasS'REDS31'
p873
(lp874
S'SCO5878'
p875
asS'REDS30'
p876
(lp877
S'SCO5879'
p878
asS'PGSA161'
p879
(lp880
S'SCO5753'
p881
asS'PGSA160'
p882
(lp883
S'SCO5753'
p884
asS'REDS35'
p885
(lp886
S'SCO5895'
p887
asS'REDS34'
p888
(lp889
S'SCO5890'
p890
asS'EX_his_DASH_L_LPAREN_e_RPAREN_'
p891
(lp892
g6
asS'3HAD160'
p893
(lp894
g6
asS'3HAD161'
p895
(lp896
g6
asS'DHQTi'
p897
(lp898
S'SCO1961'
p899
asS'DCH'
p900
(lp901
S'SCO2758'
p902
aS'SCO2786'
p903
aS'SCO2943'
p904
aS'SCO4860'
p905
asS'PPCOAC'
p906
(lp907
(lp908
S'SCO2776'
p909
aS'SCO2777'
p910
aa(lp911
S'SCO4380'
p912
aS'SCO4381'
p913
aaS'SCO4921'
p914
a(lp915
S'SCO4925'
p916
aS'SCO4926'
p917
aS'SCO6271'
p918
aasS'THRD'
p919
(lp920
S'SCO6799'
p921
asS'RBFSb'
p922
(lp923
S'SCO1443'
p924
asS'DABAAT'
p925
(lp926
S'SCO1865'
p927
aS'SCO5799'
p928
asS'GLDBRAN2'
p929
(lp930
S'SCO7338'
p931
aS'SCO5456'
p932
aS'SCO6082'
p933
asS'THRS'
p934
(lp935
S'SCO4293'
p936
aS'SCO5355'
p937
asS'CLPNS181'
p938
(lp939
S'SCO7081'
p940
asS'CLPNS180'
p941
(lp942
S'SCO7081'
p943
asS'3HADi70'
p944
(lp945
g6
asS'QULNS'
p946
(lp947
S'SCO2162'
p948
asS'EPMEACPR'
p949
(lp950
S'SCO1814'
p951
asS'ASNS1'
p952
(lp953
S'SCO0386'
p954
asS'H2O2t'
p955
(lp956
S's0001'
p957
asS'NTD11e'
p958
(lp959
S'SCO4152'
p960
asS'EX_xyl_DASH_D_LPAREN_e_RPAREN_'
p961
(lp962
g6
asS'ACPPAT141'
p963
(lp964
g6
asS'ACPPAT140'
p965
(lp966
g6
asS'PEAMNO'
p967
(lp968
g6
asS'EGMEACPR'
p969
(lp970
S'SCO1814'
p971
asS'EX_trp_DASH_L_LPAREN_e_RPAREN_'
p972
(lp973
g6
asS'DINSt2'
p974
(lp975
g6
asS'EX_sbt_DASH_D_LPAREN_e_RPAREN_'
p976
(lp977
g6
asS'EARi80y'
p978
(lp979
S'SCO1814'
p980
asS'3OAR121'
p981
(lp982
S'SCO1815'
p983
aS'SCO1345'
p984
aS'SCO1346'
p985
aS'SCO4501'
p986
aS'SCO1831'
p987
aS'SCO4681'
p988
aS'SCO0330'
p989
asS'BCOATA'
p990
(lp991
S'SCO1271'
p992
aS'SCO2388'
p993
a(lp994
S'SCO2389'
p995
aS'SCO6564'
p996
aaS'SCO0549'
p997
aS'SCO1267'
p998
aS'SCO1272'
p999
asS'SUCR'
p1000
(lp1001
S'SCO1394'
p1002
aS'SCO2228'
p1003
aS'SCO3780'
p1004
aS'SCO7010'
p1005
asS'3OAR120'
p1006
(lp1007
S'SCO1815'
p1008
aS'SCO1345'
p1009
aS'SCO1346'
p1010
aS'SCO4501'
p1011
aS'SCO1831'
p1012
aS'SCO4681'
p1013
aS'SCO0330'
p1014
asS'DDGLCNt2r'
p1015
(lp1016
g6
asS'ACPPATi140'
p1017
(lp1018
g6
asS'FUMAC'
p1019
(lp1020
S'SCO4580'
p1021
asS'3OARi180'
p1022
(lp1023
S'SCO1815'
p1024
aS'SCO1345'
p1025
aS'SCO1346'
p1026
aS'SCO4501'
p1027
aS'SCO1831'
p1028
aS'SCO4681'
p1029
aS'SCO0330'
p1030
asS'PGSA181'
p1031
(lp1032
S'SCO5753'
p1033
asS'PGSA180'
p1034
(lp1035
S'SCO5753'
p1036
asS'GLYt2r'
p1037
(lp1038
S'SCO2914'
p1039
asS'MDDEP4'
p1040
(lp1041
S'SCO6131'
p1042
aS'SCO4439'
p1043
asS'MDDEP1'
p1044
(lp1045
S'SCO6131'
p1046
aS'SCO4439'
p1047
asS'MDDEP2'
p1048
(lp1049
S'SCO6131'
p1050
aS'SCO4439'
p1051
asS'MDDEP3'
p1052
(lp1053
S'SCO6131'
p1054
aS'SCO4439'
p1055
asS'MN2t3'
p1056
(lp1057
S'SCO0776'
p1058
aS'SCO1310'
p1059
aS'SCO2772'
p1060
aS'SCO6751'
p1061
asS'ADNUC'
p1062
(lp1063
S'SCO3779'
p1064
asS'MALACPMT'
p1065
(lp1066
g6
asS'ACPS1'
p1067
(lp1068
S'SCO4744'
p1069
asS'CIGAMS'
p1070
(lp1071
S'SCO1663'
p1072
asS'NTD7e'
p1073
(lp1074
S'SCO4152'
p1075
asS'AICART'
p1076
(lp1077
S'SCO4814'
p1078
asS'3OAR90'
p1079
(lp1080
S'SCO1815'
p1081
aS'SCO1345'
p1082
aS'SCO1346'
p1083
aS'SCO4501'
p1084
aS'SCO1831'
p1085
aS'SCO4681'
p1086
aS'SCO0330'
p1087
asS'COBALT2t3'
p1088
(lp1089
S'SCO0776'
p1090
aS'SCO1310'
p1091
aS'SCO2772'
p1092
aS'SCO6751'
p1093
asS'GPDDA4e'
p1094
(lp1095
S'SCO1565'
p1096
aS'SCO1968'
p1097
aS'SCO7550'
p1098
asS'GLNTRS'
p1099
(lp1100
g6
asS'UMPK'
p1101
(lp1102
S'SCO5626'
p1103
aS'SCO1760'
p1104
asS'ADK4i'
p1105
(lp1106
S'SCO4723'
p1107
asS'AMPTASEPG'
p1108
(lp1109
S'SCO2018'
p1110
aS'SCO2635'
p1111
aS'SCO2643'
p1112
asS'DMPPS'
p1113
(lp1114
S'SCO5058'
p1115
asS'PYRt2r'
p1116
(lp1117
g6
asS'ACOAD3f'
p1118
(lp1119
S'SCO1690'
p1120
aS'SCO2774'
p1121
aS'SCO6787'
p1122
asS'EARi150y'
p1123
(lp1124
S'SCO1814'
p1125
asS'EARi150x'
p1126
(lp1127
S'SCO1814'
p1128
asS'EARai130x'
p1129
(lp1130
S'SCO1814'
p1131
asS'UAGCVT'
p1132
(lp1133
S'SCO2949'
p1134
aS'SCO5998'
p1135
asS'3HADai90'
p1136
(lp1137
g6
asS'NOt'
p1138
(lp1139
S's0001'
p1140
asS'HADPCOADH3'
p1141
(lp1142
S'SCO1591'
p1143
aS'SCO3834'
p1144
aS'SCO5385'
p1145
asS'EX_asp_DASH_L_LPAREN_e_RPAREN_'
p1146
(lp1147
g6
asS'CTPS2'
p1148
(lp1149
S'SCO1776'
p1150
asS'CTPS1'
p1151
(lp1152
S'SCO1776'
p1153
asS'URAt2r'
p1154
(lp1155
S'SCO1450'
p1156
asS'EAR130y'
p1157
(lp1158
S'SCO1814'
p1159
asS'EAR130x'
p1160
(lp1161
S'SCO1814'
p1162
asS'ACGApts'
p1163
(lp1164
(lp1165
S'SCO1391'
p1166
aS'SCO2905'
p1167
aS'SCO2906'
p1168
aS'SCO2907'
p1169
aS'SCO5841'
p1170
aasS'AHSERL2r'
p1171
(lp1172
S'SCO1294'
p1173
aS'SCO4958'
p1174
asS'EX_taur_LPAREN_e_RPAREN_'
p1175
(lp1176
g6
asS'CS'
p1177
(lp1178
S'SCO2736'
p1179
aS'SCO4388'
p1180
aS'SCO5832'
p1181
asS'FALDt'
p1182
(lp1183
S's0001'
p1184
asS'DM_ACT'
p1185
(lp1186
g6
asS'CITt7'
p1187
(lp1188
S'SCO2144'
p1189
asS'CITt3'
p1190
(lp1191
g6
asS'EX_zn2_LPAREN_e_RPAREN_'
p1192
(lp1193
g6
asS'CPPPGO2'
p1194
(lp1195
S'SCO2559'
p1196
asS'FEOXAMEabc'
p1197
(lp1198
S'SCO2780'
p1199
asS'TMPK'
p1200
(lp1201
S'SCO5562'
p1202
asS'RBFK'
p1203
(lp1204
S'SCO5711'
p1205
asS'ACPScda'
p1206
(lp1207
S'SCO6673'
p1208
asS'EX_drib_LPAREN_e_RPAREN_'
p1209
(lp1210
g6
asS'DURIK1'
p1211
(lp1212
S'SCO5845'
p1213
asS'MALTHXabc'
p1214
(lp1215
(lp1216
S'SCO2229'
p1217
aS'SCO2230'
p1218
aS'SCO2231'
p1219
aS'SCO4240'
p1220
aasS'PYDAMt'
p1221
(lp1222
g6
asS'3OAS130'
p1223
(lp1224
S'SCO0548'
p1225
aS'SCO2390'
p1226
aS'SCO1266'
p1227
asS'ACACT2r'
p1228
(lp1229
S'SCO6788'
p1230
aS'SCO1324'
p1231
aS'SCO4502'
p1232
aS'SCO6027'
p1233
asS'FEOXAMER2'
p1234
(lp1235
g6
asS'EX_23cgmp_LPAREN_e_RPAREN_'
p1236
(lp1237
g6
asS'PYDAMK'
p1238
(lp1239
g6
asS'FEOXAMER3'
p1240
(lp1241
g6
asS'METTRS'
p1242
(lp1243
S'SCO3792'
p1244
aS'SCO6436'
p1245
asS'EX_fe3_LPAREN_e_RPAREN_'
p1246
(lp1247
g6
asS'PAPAi160'
p1248
(lp1249
g6
asS'ALATRS'
p1250
(lp1251
S'SCO1501'
p1252
asS'PSSAi150'
p1253
(lp1254
S'SCO6467'
p1255
asS'ALDD1'
p1256
(lp1257
S'SCO4055'
p1258
asS'CELBabc'
p1259
(lp1260
(lp1261
S'SCO2795'
p1262
aS'SCO2796'
p1263
aS'SCO2797'
p1264
aS'SCO4240'
p1265
aa(lp1266
S'SCO4240'
p1267
aS'SCO7555'
p1268
aS'SCO7556'
p1269
aS'SCO7557'
p1270
aasS'UDPG4E'
p1271
(lp1272
S'SCO2988'
p1273
aS'SCO3137'
p1274
aS'SCO3326'
p1275
aS'SCO3739'
p1276
asS'PTPATi'
p1277
(lp1278
S'SCO5568'
p1279
asS'AGPATi160'
p1280
(lp1281
S'SCO0920'
p1282
aS'SCO1085'
p1283
aS'SCO1228'
p1284
aS'SCO1566'
p1285
aS'SCO1759'
p1286
aS'SCO2122'
p1287
asS'CLt3_2'
p1288
(lp1289
S'SCO5964'
p1290
aS'SCO6320'
p1291
asS'X5PL3E'
p1292
(lp1293
g6
asS'NTD10e'
p1294
(lp1295
S'SCO4152'
p1296
asS'PAPA170'
p1297
(lp1298
g6
asS'AGPAT140'
p1299
(lp1300
S'SCO0920'
p1301
aS'SCO1085'
p1302
aS'SCO1228'
p1303
aS'SCO1566'
p1304
aS'SCO1759'
p1305
aS'SCO2122'
p1306
asS'AGPAT141'
p1307
(lp1308
S'SCO0920'
p1309
aS'SCO1085'
p1310
aS'SCO1228'
p1311
aS'SCO1566'
p1312
aS'SCO1759'
p1313
aS'SCO2122'
p1314
asS'EX_spmd_LPAREN_e_RPAREN_'
p1315
(lp1316
g6
asS'GLNS'
p1317
(lp1318
S'SCO2198'
p1319
aS'SCO2210'
p1320
asS'ACPPATi180'
p1321
(lp1322
g6
asS'URIH'
p1323
(lp1324
S'SCO3779'
p1325
asS'URIC'
p1326
(lp1327
(lp1328
S'SCO6210'
p1329
aS'SCO6211'
p1330
aasS'PSD150'
p1331
(lp1332
S'SCO6468'
p1333
asS'EX_k_LPAREN_e_RPAREN_'
p1334
(lp1335
g6
asS'RMNabc'
p1336
(lp1337
(lp1338
S'SCO0808'
p1339
aS'SCO0809'
p1340
aS'SCO0810'
p1341
aS'SCO0811'
p1342
aasS'EARai70y'
p1343
(lp1344
S'SCO1814'
p1345
asS'EARai70x'
p1346
(lp1347
S'SCO1814'
p1348
asS'PGSA170'
p1349
(lp1350
S'SCO5753'
p1351
asS'DDPGA'
p1352
(lp1353
S'SCO0852'
p1354
aS'SCO2298'
p1355
aS'SCO3473'
p1356
aS'SCO3495'
p1357
asS'3HAD110'
p1358
(lp1359
g6
asS'HMGL'
p1360
(lp1361
S'SCO2778'
p1362
asS'NDPK6'
p1363
(lp1364
S'SCO2612'
p1365
asS'NDPK7'
p1366
(lp1367
S'SCO2612'
p1368
asS'CDAS9x'
p1369
(lp1370
S'SCO1814'
p1371
asS'CDAS9y'
p1372
(lp1373
S'SCO1814'
p1374
asS'DM_GERMA'
p1375
(lp1376
g6
asS'DM_GERMC'
p1377
(lp1378
g6
asS'DM_GERMB'
p1379
(lp1380
g6
asS'EARi70y'
p1381
(lp1382
S'SCO1814'
p1383
asS'EARi70x'
p1384
(lp1385
S'SCO1814'
p1386
asS'WCOS'
p1387
(lp1388
S'SCO3181'
p1389
aS'SCO3827'
p1390
asS'METS'
p1391
(lp1392
S'SCO1657'
p1393
asS'3OASi160'
p1394
(lp1395
S'SCO0548'
p1396
aS'SCO2390'
p1397
aS'SCO1266'
p1398
asS'PROD2'
p1399
(lp1400
g6
asS'REPHACCOAI'
p1401
(lp1402
S'SCO5144'
p1403
asS'PAPAai170'
p1404
(lp1405
g6
asS'DHFUTALS'
p1406
(lp1407
S'SCO4550'
p1408
asS'GPDDA5e'
p1409
(lp1410
S'SCO1565'
p1411
aS'SCO1968'
p1412
aS'SCO7550'
p1413
asS'ACPPAT150'
p1414
(lp1415
g6
asS'EX_pacald_LPAREN_e_RPAREN_'
p1416
(lp1417
g6
asS'NAt3_2'
p1418
(lp1419
S'SCO0015'
p1420
aS'SCO0285'
p1421
aS'SCO3564'
p1422
aS'SCO7832'
p1423
asS'DM_GERMD'
p1424
(lp1425
g6
asS'EX_ins_LPAREN_e_RPAREN_'
p1426
(lp1427
g6
asS'APH161'
p1428
(lp1429
S'SCO5576'
p1430
asS'GLYCDx'
p1431
(lp1432
S'SCO6754'
p1433
asS'RBP4E'
p1434
(lp1435
g6
asS'PGSAi180'
p1436
(lp1437
S'SCO5753'
p1438
asS'ACOAD4f'
p1439
(lp1440
S'SCO1690'
p1441
aS'SCO2774'
p1442
aS'SCO6787'
p1443
asS'GALS3'
p1444
(lp1445
S'SCO0274'
p1446
aS'SCO0541'
p1447
asS'GLYBt2'
p1448
(lp1449
S'SCO1225'
p1450
aS'SCO2336'
p1451
aS'SCO7395'
p1452
asS'HEXTT'
p1453
(lp1454
S'SCO4583'
p1455
asS'METSOXR2'
p1456
(lp1457
(lp1458
S'SCO0885'
p1459
aS'SCO6061'
p1460
aaS'SCO3889'
p1461
aS'SCO5419'
p1462
aS'SCO5438'
p1463
asS'3NTD2e'
p1464
(lp1465
S'SCO2015'
p1466
asS'DXYLK'
p1467
(lp1468
S'SCO1170'
p1469
aS'SCO2462'
p1470
asS'PAPPT3'
p1471
(lp1472
S'SCO2087'
p1473
asS'PTRCt2'
p1474
(lp1475
S'SCO5057'
p1476
asS'APG3PATi180'
p1477
(lp1478
g6
asS'FLVR'
p1479
(lp1480
S'SCO6102'
p1481
asS'EX_5mtr_LPAREN_e_RPAREN_'
p1482
(lp1483
g6
asS'3HADi60'
p1484
(lp1485
g6
asS'EAR90x'
p1486
(lp1487
S'SCO1814'
p1488
asS'ADOCBLS'
p1489
(lp1490
S'SCO2177'
p1491
asS'DM_5DRIB'
p1492
(lp1493
g6
asS'LADGMDH'
p1494
(lp1495
S'SCO1948'
p1496
asS'3OAR80'
p1497
(lp1498
S'SCO1815'
p1499
aS'SCO1345'
p1500
aS'SCO1346'
p1501
aS'SCO4501'
p1502
aS'SCO1831'
p1503
aS'SCO4681'
p1504
aS'SCO0330'
p1505
asS'FCLT'
p1506
(lp1507
S'SCO5859'
p1508
asS'APHi180'
p1509
(lp1510
S'SCO5576'
p1511
asS'GLCOAS'
p1512
(lp1513
g6
asS'PSSAi170'
p1514
(lp1515
S'SCO6467'
p1516
asS'DCYTD'
p1517
(lp1518
S'SCO4889'
p1519
aS'SCO5680'
p1520
asS'NO2t2r'
p1521
(lp1522
S'SCO2959'
p1523
aS'SCO0213'
p1524
asS'MOCOS'
p1525
(lp1526
S'SCO3181'
p1527
aS'SCO3827'
p1528
asS'DTARTD'
p1529
(lp1530
S'SCO5044'
p1531
asS'RNDR2c'
p1532
(lp1533
(lp1534
S'SCO5225'
p1535
aS'SCO5226'
p1536
aaS'SCO5805'
p1537
asS'EX_xtsn_LPAREN_e_RPAREN_'
p1538
(lp1539
g6
asS'TUNGSabc'
p1540
(lp1541
(lp1542
S'SCO3704'
p1543
aS'SCO3705'
p1544
aS'SCO3706'
p1545
aasS'CLPNSi140'
p1546
(lp1547
S'SCO7081'
p1548
asS'PSDai150'
p1549
(lp1550
S'SCO6468'
p1551
asS'FACOAE100'
p1552
(lp1553
S'SCO1153'
p1554
aS'SCO2773'
p1555
asS'ADA'
p1556
(lp1557
S'SCO2546'
p1558
aS'SCO4644'
p1559
aS'SCO4901'
p1560
aS'SCO5662'
p1561
aS'SCO7268'
p1562
asS'GALCTND'
p1563
(lp1564
S'SCO2401'
p1565
aS'SCO3475'
p1566
asS'CYSTS'
p1567
(lp1568
S'SCO3077'
p1569
asS'ATPS4r'
p1570
(lp1571
(lp1572
S'SCO5366'
p1573
aS'SCO5367'
p1574
aS'SCO5368'
p1575
aS'SCO5369'
p1576
aS'SCO5370'
p1577
aS'SCO5371'
p1578
aS'SCO5372'
p1579
aS'SCO5373'
p1580
aS'SCO5374'
p1581
aa(lp1582
S'SCO5367'
p1583
aS'SCO5368'
p1584
aS'SCO5369'
p1585
aS'SCO5370'
p1586
aS'SCO5371'
p1587
aS'SCO5372'
p1588
aS'SCO5373'
p1589
aS'SCO5374'
p1590
aasS'EARi140x'
p1591
(lp1592
S'SCO1814'
p1593
asS'EARi140y'
p1594
(lp1595
S'SCO1814'
p1596
asS'ADK2i'
p1597
(lp1598
S'SCO4723'
p1599
asS'LYSt3'
p1600
(lp1601
S'SCO7308'
p1602
asS'GTHPi'
p1603
(lp1604
S'SCO4444'
p1605
asS'EX_fru_LPAREN_e_RPAREN_'
p1606
(lp1607
g6
asS'UAGDP'
p1608
(lp1609
S'SCO3122'
p1610
asS'TRSARr'
p1611
(lp1612
S'SCO6205'
p1613
asS'PDX5POi'
p1614
(lp1615
S'SCO4387'
p1616
aS'SCO4418'
p1617
asS'PINOSi170'
p1618
(lp1619
S'SCO1527'
p1620
asS'EARai150y'
p1621
(lp1622
S'SCO1814'
p1623
asS'EARai150x'
p1624
(lp1625
S'SCO1814'
p1626
asS'DM_MSH'
p1627
(lp1628
g6
asS'3HADi140'
p1629
(lp1630
g6
asS'TAGSi170'
p1631
(lp1632
g6
asS'3OAS90'
p1633
(lp1634
S'SCO0548'
p1635
aS'SCO2390'
p1636
aS'SCO1266'
p1637
asS'METAT'
p1638
(lp1639
S'SCO1476'
p1640
asS'3OAS120'
p1641
(lp1642
S'SCO0548'
p1643
aS'SCO2390'
p1644
aS'SCO1266'
p1645
asS'3OAS121'
p1646
(lp1647
S'SCO0548'
p1648
aS'SCO2390'
p1649
aS'SCO1266'
p1650
asS'EX_gACT_LPAREN_e_RPAREN_'
p1651
(lp1652
g6
asS'FE3abc'
p1653
(lp1654
(lp1655
S'SCO5923'
p1656
aS'SCO5924'
p1657
aS'SCO5925'
p1658
aasS'MUCCY'
p1659
(lp1660
S'SCO6698'
p1661
asS'CTECOAI6'
p1662
(lp1663
S'SCO6732'
p1664
asS'EX_xan_LPAREN_e_RPAREN_'
p1665
(lp1666
g6
asS'REDS13y'
p1667
(lp1668
S'SCO1814'
p1669
asS'REDS13x'
p1670
(lp1671
S'SCO1814'
p1672
asS'ADSL1r'
p1673
(lp1674
S'SCO1254'
p1675
asS'CTECOAI8'
p1676
(lp1677
S'SCO6732'
p1678
asS'3OADPCOAT'
p1679
(lp1680
(lp1681
S'SCO6702'
p1682
aS'SCO6703'
p1683
aasS'DRBK'
p1684
(lp1685
S'SCO2748'
p1686
asS'NTP10'
p1687
(lp1688
S'SCO6149'
p1689
asS'EX_LalaDglu_LPAREN_e_RPAREN_'
p1690
(lp1691
g6
asS'APG3PATai170'
p1692
(lp1693
g6
asS'LEUabc'
p1694
(lp1695
(lp1696
S'SCO0706'
p1697
aS'SCO0707'
p1698
aS'SCO0708'
p1699
aS'SCO0709'
p1700
aS'SCO0710'
p1701
aa(lp1702
S'SCO2008'
p1703
aS'SCO2009'
p1704
aS'SCO2010'
p1705
aS'SCO2011'
p1706
aS'SCO2012'
p1707
aa(lp1708
S'SCO7181'
p1709
aS'SCO7182'
p1710
aS'SCO7183'
p1711
aS'SCO7184'
p1712
aS'SCO7185'
p1713
aasS'BMOCOS'
p1714
(lp1715
S'SCO3181'
p1716
aS'SCO3827'
p1717
asS'APG3PAT170'
p1718
(lp1719
g6
asS'GDPMNP'
p1720
(lp1721
S'SCO0280'
p1722
asS'AGPATi150'
p1723
(lp1724
S'SCO0920'
p1725
aS'SCO1085'
p1726
aS'SCO1228'
p1727
aS'SCO1566'
p1728
aS'SCO1759'
p1729
aS'SCO2122'
p1730
asS'DHACOAH'
p1731
(lp1732
S'SCO6732'
p1733
aS'SCO4384'
p1734
asS'PSSAai150'
p1735
(lp1736
S'SCO6467'
p1737
asS'EX_cl_LPAREN_e_RPAREN_'
p1738
(lp1739
g6
asS'FACOAL180'
p1740
(lp1741
S'SCO6196'
p1742
aS'SCO6195'
p1743
aS'SCO2131'
p1744
aS'SCO2444'
p1745
aS'SCO2561'
p1746
aS'SCO2720'
p1747
aS'SCO3436'
p1748
aS'SCO4006'
p1749
aS'SCO5983'
p1750
aS'SCO6552'
p1751
aS'SCO6968'
p1752
aS'SCO7244'
p1753
asS'FACOAL181'
p1754
(lp1755
S'SCO6196'
p1756
aS'SCO6195'
p1757
aS'SCO2131'
p1758
aS'SCO2444'
p1759
aS'SCO2561'
p1760
aS'SCO2720'
p1761
aS'SCO3436'
p1762
aS'SCO4006'
p1763
aS'SCO5983'
p1764
aS'SCO6552'
p1765
aS'SCO6968'
p1766
aS'SCO7244'
p1767
asS'COELICHELINabc'
p1768
(lp1769
(lp1770
S'SCO0494'
p1771
aS'SCO0495'
p1772
aS'SCO0496'
p1773
aS'SCO0497'
p1774
aa(lp1775
S'SCO7398'
p1776
aS'SCO7399'
p1777
aS'SCO7400'
p1778
aasS'EX_nac_LPAREN_e_RPAREN_'
p1779
(lp1780
g6
asS'EX_inost_LPAREN_e_RPAREN_'
p1781
(lp1782
g6
asS'PAPA160'
p1783
(lp1784
g6
asS'PAPA161'
p1785
(lp1786
g6
asS'MOADSUx'
p1787
(lp1788
(lp1789
S'SCO5201'
p1790
aS'SCO5486'
p1791
aasS'EX_akg_LPAREN_e_RPAREN_'
p1792
(lp1793
g6
asS'23PDE7e'
p1794
(lp1795
S'SCO2015'
p1796
asS'AGPAT150'
p1797
(lp1798
S'SCO0920'
p1799
aS'SCO1085'
p1800
aS'SCO1228'
p1801
aS'SCO1566'
p1802
aS'SCO1759'
p1803
aS'SCO2122'
p1804
asS'ACACT3r'
p1805
(lp1806
S'SCO6788'
p1807
aS'SCO1324'
p1808
aS'SCO4502'
p1809
aS'SCO6027'
p1810
asS'AGPATai150'
p1811
(lp1812
S'SCO0920'
p1813
aS'SCO1085'
p1814
aS'SCO1228'
p1815
aS'SCO1566'
p1816
aS'SCO1759'
p1817
aS'SCO2122'
p1818
asS'PHETA1'
p1819
(lp1820
S'SCO1859'
p1821
aS'SCO2053'
p1822
aS'SCO3944'
p1823
aS'SCO4645'
p1824
aS'SCO3658'
p1825
asS'FMETTRS'
p1826
(lp1827
S'SCO1473'
p1828
asS'ECOAH9ir'
p1829
(lp1830
S'SCO6732'
p1831
asS'O2t'
p1832
(lp1833
S's0001'
p1834
asS'ATPHs'
p1835
(lp1836
S's0001'
p1837
asS'CPC3MT'
p1838
(lp1839
S'SCO1857'
p1840
asS'NTPP8'
p1841
(lp1842
S'SCO3100'
p1843
asS'NTPP7'
p1844
(lp1845
S'SCO3100'
p1846
asS'NTPP6'
p1847
(lp1848
S'SCO3100'
p1849
asS'NTPP5'
p1850
(lp1851
S'SCO3100'
p1852
asS'NTPP4'
p1853
(lp1854
S'SCO3100'
p1855
asS'NTPP3'
p1856
(lp1857
S'SCO3100'
p1858
asS'NTPP2'
p1859
(lp1860
S'SCO3100'
p1861
asS'DM_4CRSOL'
p1862
(lp1863
g6
asS'EX_chtbs_LPAREN_e_RPAREN_'
p1864
(lp1865
g6
asS'EX_din_LPAREN_e_RPAREN_'
p1866
(lp1867
g6
asS'MAN6PI'
p1868
(lp1869
S'SCO3025'
p1870
asS'GLYALDt'
p1871
(lp1872
S'SCO1659'
p1873
aS'SCO4057'
p1874
asS'LALADGLUt'
p1875
(lp1876
S'SCO3064'
p1877
asS'3HAD100'
p1878
(lp1879
g6
asS'LCADi'
p1880
(lp1881
S'SCO3486'
p1882
asS'IACGAMS2'
p1883
(lp1884
S'SCO4204'
p1885
asS'3OARai150'
p1886
(lp1887
S'SCO1815'
p1888
aS'SCO1345'
p1889
aS'SCO1346'
p1890
aS'SCO4501'
p1891
aS'SCO1831'
p1892
aS'SCO4681'
p1893
aS'SCO0330'
p1894
asS'IG3PS'
p1895
(lp1896
(lp1897
S'SCO2048'
p1898
aS'SCO2051'
p1899
aasS'ACSERt'
p1900
(lp1901
S'SCO2756'
p1902
asS'INSDH'
p1903
(lp1904
S'SCO6982'
p1905
asS'PSSA181'
p1906
(lp1907
S'SCO6467'
p1908
asS'PSSA180'
p1909
(lp1910
S'SCO6467'
p1911
asS'DRPA'
p1912
(lp1913
S'SCO4914'
p1914
asS'H2Ot'
p1915
(lp1916
S's0001'
p1917
asS'ACPPAT161'
p1918
(lp1919
g6
asS'ACPPAT160'
p1920
(lp1921
g6
asS'CSNt2r'
p1922
(lp1923
S'SCO5524'
p1924
aS'SCO5579'
p1925
asS'TYRL'
p1926
(lp1927
S'SCO2109'
p1928
asS'L_DASH_LACt2r'
p1929
(lp1930
S'SCO3029'
p1931
asS'DASYNi180'
p1932
(lp1933
S'SCO5628'
p1934
asS'EARi170y'
p1935
(lp1936
S'SCO1814'
p1937
asS'EARi170x'
p1938
(lp1939
S'SCO1814'
p1940
asS'REDS28'
p1941
(lp1942
S'SCO5891'
p1943
asS'ALAt2r'
p1944
(lp1945
S'SCO2914'
p1946
asS'EX_glyclt_LPAREN_e_RPAREN_'
p1947
(lp1948
g6
asS'EAR141y'
p1949
(lp1950
S'SCO1814'
p1951
asS'EAR141x'
p1952
(lp1953
S'SCO1814'
p1954
asS'DPR'
p1955
(lp1956
S'SCO6562'
p1957
asS'PPBNGS'
p1958
(lp1959
S'SCO3311'
p1960
asS'MLTG1'
p1961
(lp1962
S'SCO1394'
p1963
aS'SCO2228'
p1964
aS'SCO3780'
p1965
aS'SCO7010'
p1966
asS'SULRi'
p1967
(lp1968
S'SCO6102'
p1969
asS'EX_hom_DASH_L_LPAREN_e_RPAREN_'
p1970
(lp1971
g6
asS'PC6AS'
p1972
(lp1973
S'SCO6971'
p1974
asS'PC6AR'
p1975
(lp1976
S'SCO3283'
p1977
asS'PSSAi180'
p1978
(lp1979
S'SCO6467'
p1980
asS'HISTRS'
p1981
(lp1982
S'SCO1508'
p1983
asS'CBPS'
p1984
(lp1985
(lp1986
S'SCO1483'
p1987
aS'SCO1484'
p1988
aasS'NTD5e'
p1989
(lp1990
S'SCO4152'
p1991
asS'EX_succ_LPAREN_e_RPAREN_'
p1992
(lp1993
g6
asS'PSSAi160'
p1994
(lp1995
S'SCO6467'
p1996
asS'GLUt2r'
p1997
(lp1998
S'SCO4498'
p1999
asS'TMPPP'
p2000
(lp2001
S'SCO2104'
p2002
asS'RAFt2'
p2003
(lp2004
g6
asS'FKYNH'
p2005
(lp2006
S'SCO3644'
p2007
asS'EX_celb_LPAREN_e_RPAREN_'
p2008
(lp2009
g6
asS'EX_phe_DASH_L_LPAREN_e_RPAREN_'
p2010
(lp2011
g6
asS'MMM'
p2012
(lp2013
S'SCO6832'
p2014
aS'SCO4869'
p2015
asS'MMSAD5'
p2016
(lp2017
S'SCO2726'
p2018
asS'MMSAD3'
p2019
(lp2020
S'SCO2726'
p2021
asS'MME'
p2022
(lp2023
S'SCO5398'
p2024
asS'ACOAD5f'
p2025
(lp2026
S'SCO1690'
p2027
aS'SCO2774'
p2028
aS'SCO6787'
p2029
asS'EAR80y'
p2030
(lp2031
S'SCO1814'
p2032
asS'4CMLCL'
p2033
(lp2034
S'SCO6339'
p2035
aS'SCO6697'
p2036
asS'CLPNSi150'
p2037
(lp2038
S'SCO7081'
p2039
asS'GLCNt2r'
p2040
(lp2041
S'SCO1680'
p2042
aS'SCO4991'
p2043
asS'DHFR'
p2044
(lp2045
g6
asS'GLUDxi'
p2046
(lp2047
S'SCO2999'
p2048
asS'VALTA'
p2049
(lp2050
S'SCO1546'
p2051
aS'SCO5523'
p2052
asS'MPTSS'
p2053
(lp2054
S'SCO5178'
p2055
asS'OGMEACPD'
p2056
(lp2057
g6
asS'ALAt4'
p2058
(lp2059
S'SCO7197'
p2060
asS'PPDK'
p2061
(lp2062
S'SCO0208'
p2063
aS'SCO2494'
p2064
asS'MI1PS2'
p2065
(lp2066
S'SCO3243'
p2067
aS'SCO3899'
p2068
aS'SCO6573'
p2069
asS'ADK1'
p2070
(lp2071
S'SCO4723'
p2072
asS'CDAabc'
p2073
(lp2074
(lp2075
S'SCO3223'
p2076
aS'SCO3224'
p2077
aaS'SCO3235'
p2078
asS'HEX7'
p2079
(lp2080
S'SCO1957'
p2081
asS'OGMEACPR'
p2082
(lp2083
S'SCO0330'
p2084
aS'SCO1345'
p2085
aS'SCO1346'
p2086
aS'SCO1815'
p2087
aS'SCO1831'
p2088
aS'SCO4501'
p2089
aS'SCO4681'
p2090
asS'FRUpts'
p2091
(lp2092
(lp2093
S'SCO1391'
p2094
aS'SCO3196'
p2095
aS'SCO5841'
p2096
aasS'EAR90y'
p2097
(lp2098
S'SCO1814'
p2099
asS'APG3PAT181'
p2100
(lp2101
g6
asS'APG3PAT180'
p2102
(lp2103
g6
asS'OCOAT1'
p2104
(lp2105
(lp2106
S'SCO6702'
p2107
aS'SCO6703'
p2108
aasS'NO3t7'
p2109
(lp2110
S'SCO2959'
p2111
aS'SCO0213'
p2112
asS'AMMQLT9'
p2113
(lp2114
S'SCO4556'
p2115
aS'SCO5940'
p2116
asS'PINOS120'
p2117
(lp2118
S'SCO1527'
p2119
asS'UAAGDS'
p2120
(lp2121
S'SCO2089'
p2122
asS'3HADi150'
p2123
(lp2124
g6
asS'GLCP2'
p2125
(lp2126
S'SCO5444'
p2127
asS'RNDR3c'
p2128
(lp2129
(lp2130
S'SCO5225'
p2131
aS'SCO5226'
p2132
aaS'SCO5805'
p2133
asS'REDS20'
p2134
(lp2135
g6
asS'CLPNSai170'
p2136
(lp2137
S'SCO7081'
p2138
asS'ACONMT'
p2139
(lp2140
S'SCO3132'
p2141
asS'DUTPDP'
p2142
(lp2143
S'SCO5868'
p2144
asS'DABAACT'
p2145
(lp2146
S'SCO1864'
p2147
asS'IPMD'
p2148
(lp2149
S'SCO5522'
p2150
asS'NMNPt'
p2151
(lp2152
S'SCO1442'
p2153
asS'23PDE4e'
p2154
(lp2155
S'SCO2015'
p2156
asS'FMNRx2'
p2157
(lp2158
S'SCO3295'
p2159
aS'SCO6102'
p2160
asS'DHDPRy'
p2161
(lp2162
S'SCO5739'
p2163
asS'PGCD'
p2164
(lp2165
S'SCO5515'
p2166
asS'3OXCOAT'
p2167
(lp2168
S'SCO6701'
p2169
aS'SCO6967'
p2170
aS'SCO3079'
p2171
aS'SCO6731'
p2172
asS'SALCpts'
p2173
(lp2174
g6
asS'TPI'
p2175
(lp2176
S'SCO0578'
p2177
aS'SCO1945'
p2178
asS'EX_bhb_LPAREN_e_RPAREN_'
p2179
(lp2180
g6
asS'ORNDC'
p2181
(lp2182
S'SCO6035'
p2183
asS'APG3PAT161'
p2184
(lp2185
g6
asS'APG3PAT160'
p2186
(lp2187
g6
asS'AGPATi140'
p2188
(lp2189
S'SCO0920'
p2190
aS'SCO1085'
p2191
aS'SCO1228'
p2192
aS'SCO1566'
p2193
aS'SCO1759'
p2194
aS'SCO2122'
p2195
asS'CLPNSIIi180'
p2196
(lp2197
S'SCO1389'
p2198
asS'EX_nmn_LPAREN_e_RPAREN_'
p2199
(lp2200
g6
asS'PDE4'
p2201
(lp2202
S'SCO6075'
p2203
asS'PDE1'
p2204
(lp2205
S'SCO6075'
p2206
asS'CYTK1'
p2207
(lp2208
S'SCO1760'
p2209
asS'CYTK2'
p2210
(lp2211
S'SCO1760'
p2212
asS'TRPTRS'
p2213
(lp2214
S'SCO3334'
p2215
aS'SCO4839'
p2216
asS'AGPAT160'
p2217
(lp2218
S'SCO0920'
p2219
aS'SCO1085'
p2220
aS'SCO1228'
p2221
aS'SCO1566'
p2222
aS'SCO1759'
p2223
aS'SCO2122'
p2224
asS'AGPAT161'
p2225
(lp2226
S'SCO0920'
p2227
aS'SCO1085'
p2228
aS'SCO1228'
p2229
aS'SCO1566'
p2230
aS'SCO1759'
p2231
aS'SCO2122'
p2232
asS'L_DASH_LACD4'
p2233
(lp2234
S'SCO0763'
p2235
a(lp2236
S'SCO0815'
p2237
aS'SCO0816'
p2238
aS'SCO0817'
p2239
aasS'GLGCc'
p2240
(lp2241
S'SCO0393'
p2242
asS'NODOy'
p2243
(lp2244
S'SCO7428'
p2245
aS'SCO7094'
p2246
asS'3OASai170'
p2247
(lp2248
S'SCO0548'
p2249
aS'SCO2390'
p2250
aS'SCO1266'
p2251
asS'DHNPA2r'
p2252
(lp2253
S'SCO3400'
p2254
asS'NTD12e'
p2255
(lp2256
S'SCO4152'
p2257
asS'PAPA150'
p2258
(lp2259
g6
asS'FEOXAMBR1'
p2260
(lp2261
g6
asS'FEOXAMBR3'
p2262
(lp2263
g6
asS'FEOXAMBR2'
p2264
(lp2265
g6
asS'EX_4abut_LPAREN_e_RPAREN_'
p2266
(lp2267
g6
asS'DCTPD'
p2268
(lp2269
S'SCO3678'
p2270
asS'REDS26'
p2271
(lp2272
S'SCO5892'
p2273
asS'3HAD130'
p2274
(lp2275
g6
asS'OGMEACPS2'
p2276
(lp2277
S'SCO0548'
p2278
aS'SCO2390'
p2279
aS'SCO1266'
p2280
asS'MCTP1A'
p2281
(lp2282
S'SCO3847'
p2283
aS'SCO5301'
p2284
aS'SCO2608'
p2285
aS'SCO2090'
p2286
asS'ENO'
p2287
(lp2288
S'SCO3096'
p2289
aS'SCO7638'
p2290
asS'CD2t4'
p2291
(lp2292
S'SCO0776'
p2293
aS'SCO1310'
p2294
aS'SCO2772'
p2295
aS'SCO6751'
p2296
asS'DASYNai170'
p2297
(lp2298
S'SCO5628'
p2299
asS'REDS23'
p2300
(lp2301
S'SCO5892'
p2302
asS'MGCH'
p2303
(lp2304
g6
asS'ASO3t8'
p2305
(lp2306
S'SCO7367'
p2307
aS'SCO3577'
p2308
aS'SCO3578'
p2309
asS'G1SAT'
p2310
(lp2311
S'SCO0401'
p2312
aS'SCO4469'
p2313
asS'HEPTT'
p2314
(lp2315
S'SCO4583'
p2316
asS'ARGAGMt7'
p2317
(lp2318
S'SCO6528'
p2319
asS'AKGDH2'
p2320
(lp2321
(lp2322
S'SCO4594'
p2323
aS'SCO4595'
p2324
aa(lp2325
S'SCO0681'
p2326
aS'SCO6269'
p2327
aS'SCO6270'
p2328
aasS'ACOAD6f'
p2329
(lp2330
S'SCO1690'
p2331
aS'SCO2774'
p2332
aS'SCO6787'
p2333
asS'ALCD19y'
p2334
(lp2335
S'SCO4945'
p2336
aS'SCO4271'
p2337
asS'EX_acgam_LPAREN_e_RPAREN_'
p2338
(lp2339
g6
asS'ACPPAT170'
p2340
(lp2341
g6
asS'G5SD'
p2342
(lp2343
S'SCO2585'
p2344
asS'PACCOATE'
p2345
(lp2346
S'SCO7470'
p2347
asS'EX_23cump_LPAREN_e_RPAREN_'
p2348
(lp2349
g6
asS'RBK_L1'
p2350
(lp2351
g6
asS'EX_lipoate_LPAREN_e_RPAREN_'
p2352
(lp2353
g6
asS'LYSDC'
p2354
(lp2355
S'SCO7311'
p2356
asS'PNTOt4'
p2357
(lp2358
S'SCO5229'
p2359
asS'ADNCYC'
p2360
(lp2361
S'SCO4928'
p2362
asS'AMPTASECG'
p2363
(lp2364
S'SCO2018'
p2365
aS'SCO2635'
p2366
aS'SCO2643'
p2367
asS'PDH'
p2368
(lp2369
S'SCO2183'
p2370
aS'SCO2371'
p2371
aS'SCO7124'
p2372
a(lp2373
S'SCO1269'
p2374
aS'SCO1270'
p2375
aS'SCO3815'
p2376
aa(lp2377
S'SCO0884'
p2378
aS'SCO3829'
p2379
aaS'SCO2180'
p2380
aS'SCO4919'
p2381
asS'GALUi'
p2382
(lp2383
S'SCO3182'
p2384
asS'INDOLEt2r'
p2385
(lp2386
g6
asS'CLPNS150'
p2387
(lp2388
S'SCO7081'
p2389
asS'DALAt2'
p2390
(lp2391
S'SCO2914'
p2392
asS'EX_adn_LPAREN_e_RPAREN_'
p2393
(lp2394
g6
asS'THRA2i'
p2395
(lp2396
S'SCO1087'
p2397
aS'SCO4837'
p2398
aS'SCO5470'
p2399
aS'SCO5364'
p2400
asS'TAGS120'
p2401
(lp2402
g6
asS'ACPPATai170'
p2403
(lp2404
g6
asS'EARi160x'
p2405
(lp2406
S'SCO1814'
p2407
asS'EARi160y'
p2408
(lp2409
S'SCO1814'
p2410
asS'CYRDAAT'
p2411
(lp2412
S'SCO1851'
p2413
asS'INSt2r'
p2414
(lp2415
g6
asS'COELICHELINUt'
p2416
(lp2417
(lp2418
S'SCO0491'
p2419
aS'SCO0493'
p2420
aasS'UPPRT'
p2421
(lp2422
S'SCO1488'
p2423
aS'SCO4041'
p2424
asS'3OASai150'
p2425
(lp2426
S'SCO0548'
p2427
aS'SCO2390'
p2428
aS'SCO1266'
p2429
asS'NTD8e'
p2430
(lp2431
S'SCO4152'
p2432
asS'APH180'
p2433
(lp2434
S'SCO5576'
p2435
asS'APH181'
p2436
(lp2437
S'SCO5576'
p2438
asS'GPDDA2e'
p2439
(lp2440
S'SCO1565'
p2441
aS'SCO1968'
p2442
aS'SCO7550'
p2443
asS'APH160'
p2444
(lp2445
S'SCO5576'
p2446
asS'CLPNSi160'
p2447
(lp2448
S'SCO7081'
p2449
asS'URIt2r'
p2450
(lp2451
g6
asS'ABTabc'
p2452
(lp2453
(lp2454
S'SCO1898'
p2455
aS'SCO1899'
p2456
aS'SCO1900'
p2457
aS'SCO4240'
p2458
aasS'ACPPATi150'
p2459
(lp2460
g6
asS'FACOAE120'
p2461
(lp2462
S'SCO1153'
p2463
aS'SCO2773'
p2464
asS'EAR140x'
p2465
(lp2466
S'SCO1814'
p2467
asS'EAR140y'
p2468
(lp2469
S'SCO1814'
p2470
asS'EX_cu_LPAREN_e_RPAREN_'
p2471
(lp2472
g6
asS'BTS5'
p2473
(lp2474
S'SCO1244'
p2475
asS'MSHS'
p2476
(lp2477
S'SCO4151'
p2478
asS'CITL'
p2479
(lp2480
S'SCO2033'
p2481
aS'SCO6471'
p2482
asS'3OAS170'
p2483
(lp2484
S'SCO0548'
p2485
aS'SCO2390'
p2486
aS'SCO1266'
p2487
asS'ACCOAC'
p2488
(lp2489
S'SCO2445'
p2490
a(lp2491
S'SCO2777'
p2492
aS'SCO5535'
p2493
aS'SCO5536'
p2494
aaS'SCO4921'
p2495
aS'SCO6271'
p2496
asS'EX_cbi_LPAREN_e_RPAREN_'
p2497
(lp2498
g6
asS'NMNAT'
p2499
(lp2500
S'SCO2579'
p2501
asS'AKGDH'
p2502
(lp2503
(lp2504
S'SCO2181'
p2505
aS'SCO5281'
p2506
aa(lp2507
S'SCO0884'
p2508
aS'SCO7123'
p2509
aaS'SCO2180'
p2510
aS'SCO4919'
p2511
asS'BACCL'
p2512
(lp2513
S'SCO4927'
p2514
asS'3OASi90'
p2515
(lp2516
S'SCO0548'
p2517
aS'SCO2390'
p2518
aS'SCO1266'
p2519
asS'MTHFC'
p2520
(lp2521
S'SCO4824'
p2522
asS'GLUabc'
p2523
(lp2524
(lp2525
S'SCO5774'
p2526
aS'SCO5775'
p2527
aS'SCO5776'
p2528
aS'SCO5777'
p2529
aasS'UDCPDPS'
p2530
(lp2531
S'SCO2509'
p2532
asS'HSK'
p2533
(lp2534
S'SCO5356'
p2535
asS'3HADi160'
p2536
(lp2537
g6
asS'COCHL'
p2538
(lp2539
S'SCO1849'
p2540
asS'PPGPPDP'
p2541
(lp2542
S'SCO1513'
p2543
aS'SCO5794'
p2544
asS'PSDai170'
p2545
(lp2546
S'SCO6468'
p2547
asS'GLUDyi'
p2548
(lp2549
S'SCO4683'
p2550
asS'3OAR100'
p2551
(lp2552
S'SCO1815'
p2553
aS'SCO1345'
p2554
aS'SCO1346'
p2555
aS'SCO4501'
p2556
aS'SCO1831'
p2557
aS'SCO4681'
p2558
aS'SCO0330'
p2559
asS'CLPNSII181'
p2560
(lp2561
S'SCO1389'
p2562
asS'CLPNSII180'
p2563
(lp2564
S'SCO1389'
p2565
asS'PRAIi'
p2566
(lp2567
S'SCO2050'
p2568
asS'FEOXAMEUt'
p2569
(lp2570
g6
asS'DABTD'
p2571
(lp2572
g6
asS'LCTSabc'
p2573
(lp2574
(lp2575
S'SCO7408'
p2576
aS'SCO7409'
p2577
aS'SCO7410'
p2578
aasS'GHMT2'
p2579
(lp2580
S'SCO4837'
p2581
aS'SCO5470'
p2582
aS'SCO5364'
p2583
asS'EME'
p2584
(lp2585
S'SCO5398'
p2586
asS'3OASi140'
p2587
(lp2588
S'SCO0548'
p2589
aS'SCO2390'
p2590
aS'SCO1266'
p2591
asS'ADCPS1'
p2592
(lp2593
S'SCO1847'
p2594
asS'HPROb'
p2595
(lp2596
S'SCO3337'
p2597
asS'CYSTGL'
p2598
(lp2599
S'SCO3920'
p2600
asS'EX_pydxn_LPAREN_e_RPAREN_'
p2601
(lp2602
g6
asS'FBA3'
p2603
(lp2604
S'SCO3649'
p2605
asS'FBA2'
p2606
(lp2607
S'SCO3649'
p2608
asS'MLTG1e'
p2609
(lp2610
S'SCO7019'
p2611
aS'SCO7020'
p2612
asS'APG3PAT150'
p2613
(lp2614
g6
asS'CYTDH'
p2615
(lp2616
S'SCO3779'
p2617
asS'AGPAT170'
p2618
(lp2619
S'SCO0920'
p2620
aS'SCO1085'
p2621
aS'SCO1228'
p2622
aS'SCO1566'
p2623
aS'SCO1759'
p2624
aS'SCO2122'
p2625
asS'PTRCabc'
p2626
(lp2627
(lp2628
S'SCO5658'
p2629
aS'SCO5667'
p2630
aS'SCO5668'
p2631
aS'SCO5669'
p2632
aS'SCO5670'
p2633
aasS'EX_glcr_LPAREN_e_RPAREN_'
p2634
(lp2635
g6
asS'PAPA140'
p2636
(lp2637
g6
asS'PAPA141'
p2638
(lp2639
g6
asS'OMPDC'
p2640
(lp2641
S'SCO1481'
p2642
asS'CYRDAS'
p2643
(lp2644
S'SCO1852'
p2645
asS'CYRDAR'
p2646
(lp2647
g6
asS'QMO3'
p2648
(lp2649
S's0001'
p2650
asS'EX_agm_LPAREN_e_RPAREN_'
p2651
(lp2652
g6
asS'MOGDS'
p2653
(lp2654
S'SCO3828'
p2655
asS'ANPRT'
p2656
(lp2657
S'SCO2147'
p2658
aS'SCO3212'
p2659
asS'CYSTL'
p2660
(lp2661
S'SCO0435'
p2662
aS'SCO0731'
p2663
asS'CHLabc'
p2664
(lp2665
(lp2666
S'SCO2930'
p2667
aS'SCO2931'
p2668
aS'SCO2932'
p2669
aS'SCO2933'
p2670
aa(lp2671
S'SCO6062'
p2672
aS'SCO6063'
p2673
aS'SCO6064'
p2674
aS'SCO6065'
p2675
aasS'PSD180'
p2676
(lp2677
S'SCO6468'
p2678
asS'PSD181'
p2679
(lp2680
S'SCO6468'
p2681
asS'COELICHELINexs'
p2682
(lp2683
S's0001'
p2684
asS'Biomass_SCO'
p2685
(lp2686
g6
asS'3HAD120'
p2687
(lp2688
g6
asS'3HAD121'
p2689
(lp2690
g6
asS'6PHBG'
p2691
(lp2692
S'SCO2661'
p2693
aS'SCO6670'
p2694
asS'PROabc'
p2695
(lp2696
(lp2697
S'SCO4830'
p2698
aS'SCO4831'
p2699
aS'SCO4832'
p2700
aa(lp2701
S'SCO1620'
p2702
aS'SCO1621'
p2703
aasS'5MTRt'
p2704
(lp2705
g6
asS'G1DH'
p2706
(lp2707
S'SCO1335'
p2708
asS'GARFT'
p2709
(lp2710
S'SCO4813'
p2711
asS'ADOCBIK'
p2712
(lp2713
S'SCO2173'
p2714
asS'EX_desferrioxamE_LPAREN_e_RPAREN_'
p2715
(lp2716
g6
asS'PPCDC'
p2717
(lp2718
S'SCO1477'
p2719
asS'GDPDPK'
p2720
(lp2721
S'SCO1513'
p2722
aS'SCO5794'
p2723
asS'CPC8MM'
p2724
(lp2725
S'SCO3282'
p2726
asS'EX_melt_LPAREN_e_RPAREN_'
p2727
(lp2728
g6
asS'GLCP'
p2729
(lp2730
S'SCO5444'
p2731
asS'EHGLAT'
p2732
(lp2733
S'SCO4645'
p2734
aS'SCO3658'
p2735
asS'KARA1i'
p2736
(lp2737
S'SCO5514'
p2738
aS'SCO7154'
p2739
asS'UACMAMO'
p2740
(lp2741
S'SCO4773'
p2742
aS'SCO5050'
p2743
asS'INSH'
p2744
(lp2745
S'SCO3779'
p2746
asS'EX_coelichelin_LPAREN_e_RPAREN_'
p2747
(lp2748
g6
asS'EX_g3pe_LPAREN_e_RPAREN_'
p2749
(lp2750
g6
asS'GND'
p2751
(lp2752
S'SCO0975'
p2753
aS'SCO3877'
p2754
aS'SCO6658'
p2755
asS'ALAD_L'
p2756
(lp2757
S'SCO1773'
p2758
asS'GNK'
p2759
(lp2760
S'SCO1679'
p2761
asS'NADH10'
p2762
(lp2763
S'SCO3092'
p2764
aS'SCO7101'
p2765
aS'SCO7319'
p2766
aS'SCO6496'
p2767
aS'SCO0158'
p2768
aS'SCO4119'
p2769
asS'NADH17'
p2770
(lp2771
S'SCO4562'
p2772
a(lp2773
S'SCO4563'
p2774
aS'SCO4599'
p2775
aa(lp2776
S'SCO3392'
p2777
aS'SCO4564'
p2778
aS'SCO4600'
p2779
aa(lp2780
S'SCO4565'
p2781
aS'SCO4566'
p2782
aS'SCO4567'
p2783
aa(lp2784
S'SCO4568'
p2785
aS'SCO4569'
p2786
aS'SCO6560'
p2787
aa(lp2788
S'SCO4570'
p2789
aS'SCO4602'
p2790
aa(lp2791
S'SCO4571'
p2792
aS'SCO4603'
p2793
aa(lp2794
S'SCO4572'
p2795
aS'SCO4604'
p2796
aa(lp2797
S'SCO4573'
p2798
aS'SCO4605'
p2799
aaS'SCO4606'
p2800
a(lp2801
S'SCO4574'
p2802
aS'SCO6954'
p2803
aa(lp2804
S'SCO4575'
p2805
aS'SCO4607'
p2806
aaS'SCO4608'
p2807
asS'CLPNS141'
p2808
(lp2809
S'SCO7081'
p2810
asS'CLPNS140'
p2811
(lp2812
S'SCO7081'
p2813
asS'EX_damp_LPAREN_e_RPAREN_'
p2814
(lp2815
g6
asS'PYAM5PO'
p2816
(lp2817
S'SCO4387'
p2818
aS'SCO4418'
p2819
asS'MCCC'
p2820
(lp2821
(lp2822
S'SCO2776'
p2823
aS'SCO2777'
p2824
aasS'PSSAi140'
p2825
(lp2826
S'SCO6467'
p2827
asS'3OAS80'
p2828
(lp2829
S'SCO0548'
p2830
aS'SCO2390'
p2831
aS'SCO1266'
p2832
asS'ALAALAD'
p2833
(lp2834
S'SCO3596'
p2835
asS'REDS9y'
p2836
(lp2837
S'SCO1814'
p2838
asS'REDS9x'
p2839
(lp2840
S'SCO1814'
p2841
asS'DADK'
p2842
(lp2843
S'SCO4723'
p2844
asS'DADA'
p2845
(lp2846
S'SCO2546'
p2847
aS'SCO4644'
p2848
aS'SCO4901'
p2849
aS'SCO5662'
p2850
aS'SCO7268'
p2851
asS'PPAt4'
p2852
(lp2853
S'SCO5229'
p2854
asS'PSSA141'
p2855
(lp2856
S'SCO6467'
p2857
asS'PSSA140'
p2858
(lp2859
S'SCO6467'
p2860
asS'EX_thymd_LPAREN_e_RPAREN_'
p2861
(lp2862
g6
asS'APH170'
p2863
(lp2864
S'SCO5576'
p2865
asS'NTPP11'
p2866
(lp2867
S'SCO2902'
p2868
asS'NTPP10'
p2869
(lp2870
S'SCO2902'
p2871
asS'HGNTOR'
p2872
(lp2873
S'SCO1715'
p2874
asS'CPTRCA'
p2875
(lp2876
S'SCO6414'
p2877
asS'EX_duri_LPAREN_e_RPAREN_'
p2878
(lp2879
g6
asS'DM_AACALD'
p2880
(lp2881
g6
asS'GLCRD'
p2882
(lp2883
S'SCO2542'
p2884
asS'THZPSN3'
p2885
(lp2886
(lp2887
S'SCO2108'
p2888
aS'SCO5486'
p2889
aasS'EAR161y'
p2890
(lp2891
S'SCO1814'
p2892
asS'EAR161x'
p2893
(lp2894
S'SCO1814'
p2895
asS'ALLTN'
p2896
(lp2897
S'SCO6247'
p2898
asS'DASYN180'
p2899
(lp2900
S'SCO5628'
p2901
asS'DASYN181'
p2902
(lp2903
S'SCO5628'
p2904
asS'EX_ura_LPAREN_e_RPAREN_'
p2905
(lp2906
g6
asS'EX_lac_DASH_L_LPAREN_e_RPAREN_'
p2907
(lp2908
g6
asS'TAGSi160'
p2909
(lp2910
g6
asS'THIORDXi'
p2911
(lp2912
S'SCO2901'
p2913
a(lp2914
S'SCO0885'
p2915
aS'SCO7353'
p2916
aaS'SCO3889'
p2917
aS'SCO5419'
p2918
aS'SCO5438'
p2919
aS'SCO4444'
p2920
asS'EMCCCM'
p2921
(lp2922
S'SCO6472'
p2923
asS'PHCD'
p2924
(lp2925
S'SCO5520'
p2926
asS'HKYNH'
p2927
(lp2928
S'SCO3645'
p2929
asS'3OASi80'
p2930
(lp2931
S'SCO0548'
p2932
aS'SCO2390'
p2933
aS'SCO1266'
p2934
asS'EX_aso3_LPAREN_e_RPAREN_'
p2935
(lp2936
g6
asS'EX_val_DASH_L_LPAREN_e_RPAREN_'
p2937
(lp2938
g6
asS'DASYN161'
p2939
(lp2940
S'SCO5628'
p2941
asS'EX_ala_DASH_B_LPAREN_e_RPAREN_'
p2942
(lp2943
g6
asS'PINOS140'
p2944
(lp2945
S'SCO1527'
p2946
asS'PINOS141'
p2947
(lp2948
S'SCO1527'
p2949
asS'REDS21x'
p2950
(lp2951
S'SCO1814'
p2952
asS'REDS21y'
p2953
(lp2954
S'SCO1814'
p2955
asS'EAR150y'
p2956
(lp2957
S'SCO1814'
p2958
asS'EAR150x'
p2959
(lp2960
S'SCO1814'
p2961
asS'NTD9e'
p2962
(lp2963
S'SCO4152'
p2964
asS'MELTt2'
p2965
(lp2966
g6
asS'IZPN'
p2967
(lp2968
S'SCO3070'
p2969
asS'CBIuabc'
p2970
(lp2971
g6
asS'RNDR2'
p2972
(lp2973
(lp2974
S'SCO5225'
p2975
aS'SCO5226'
p2976
aa(lp2977
S'SCO0885'
p2978
aS'SCO5805'
p2979
aaS'SCO3889'
p2980
aS'SCO5419'
p2981
aS'SCO5438'
p2982
asS'RNDR1'
p2983
(lp2984
(lp2985
S'SCO5225'
p2986
aS'SCO5226'
p2987
aa(lp2988
S'SCO0885'
p2989
aS'SCO5805'
p2990
aaS'SCO3889'
p2991
aS'SCO5419'
p2992
aS'SCO5438'
p2993
asS'DM_ACONM'
p2994
(lp2995
g6
asS'RNDR1c'
p2996
(lp2997
(lp2998
S'SCO5225'
p2999
aS'SCO5226'
p3000
aaS'SCO5805'
p3001
asS'SPODM'
p3002
(lp3003
S'SCO0999'
p3004
aS'SCO2633'
p3005
aS'SCO5254'
p3006
asS'CLPNSII170'
p3007
(lp3008
S'SCO1389'
p3009
asS'3OAR110'
p3010
(lp3011
S'SCO1815'
p3012
aS'SCO1345'
p3013
aS'SCO1346'
p3014
aS'SCO4501'
p3015
aS'SCO1831'
p3016
aS'SCO4681'
p3017
aS'SCO0330'
p3018
asS'FUMt2_2'
p3019
(lp3020
S'SCO5436'
p3021
asS'3HADai70'
p3022
(lp3023
g6
asS'EARi90y'
p3024
(lp3025
S'SCO1814'
p3026
asS'EARi90x'
p3027
(lp3028
S'SCO1814'
p3029
asS'PGMT'
p3030
(lp3031
S'SCO7443'
p3032
asS'EAR181x'
p3033
(lp3034
S'SCO1814'
p3035
asS'EX_3cmp_LPAREN_e_RPAREN_'
p3036
(lp3037
g6
asS'4HGLSD'
p3038
(lp3039
S'SCO5520'
p3040
asS'HOMt2'
p3041
(lp3042
S'SCO4374'
p3043
aS'SCO3362'
p3044
asS'CHOLD'
p3045
(lp3046
S'SCO4829'
p3047
asS'AM4PCP'
p3048
(lp3049
S'SCO6489'
p3050
asS'EX_skm_LPAREN_e_RPAREN_'
p3051
(lp3052
g6
asS'3OASi150'
p3053
(lp3054
S'SCO0548'
p3055
aS'SCO2390'
p3056
aS'SCO1266'
p3057
asS'FESD2s'
p3058
(lp3059
S's0001'
p3060
asS'EX_dimp_LPAREN_e_RPAREN_'
p3061
(lp3062
g6
asS'APG3PAT141'
p3063
(lp3064
g6
asS'APG3PAT140'
p3065
(lp3066
g6
asS'MALTATr'
p3067
(lp3068
S'SCO7519'
p3069
asS'EX_CDA_LPAREN_e_RPAREN_'
p3070
(lp3071
g6
asS'NACt'
p3072
(lp3073
g6
asS'HCO3E'
p3074
(lp3075
S'SCO2093'
p3076
aS'SCO3562'
p3077
aS'SCO3721'
p3078
aS'SCO6055'
p3079
asS'EX_3gmp_LPAREN_e_RPAREN_'
p3080
(lp3081
g6
asS'ADCS'
p3082
(lp3083
S'SCO3851'
p3084
asS'AGPAT180'
p3085
(lp3086
S'SCO0920'
p3087
aS'SCO1085'
p3088
aS'SCO1228'
p3089
aS'SCO1566'
p3090
aS'SCO1759'
p3091
aS'SCO2122'
p3092
asS'AGPAT181'
p3093
(lp3094
S'SCO0920'
p3095
aS'SCO1085'
p3096
aS'SCO1228'
p3097
aS'SCO1566'
p3098
aS'SCO1759'
p3099
aS'SCO2122'
p3100
asS'IPDDI'
p3101
(lp3102
S'SCO6750'
p3103
asS'AKP1'
p3104
(lp3105
S'SCO0828'
p3106
aS'SCO1290'
p3107
aS'SCO2068'
p3108
aS'SCO2286'
p3109
asS'AGPATi180'
p3110
(lp3111
S'SCO0920'
p3112
aS'SCO1085'
p3113
aS'SCO1228'
p3114
aS'SCO1566'
p3115
aS'SCO1759'
p3116
aS'SCO2122'
p3117
asS'OCTNLL'
p3118
(lp3119
S'SCO6423'
p3120
asS'NO3R2'
p3121
(lp3122
(lp3123
S'SCO0216'
p3124
aS'SCO0217'
p3125
aS'SCO0218'
p3126
aS'SCO0219'
p3127
aa(lp3128
S'SCO4947'
p3129
aS'SCO4948'
p3130
aS'SCO4949'
p3131
aS'SCO4950'
p3132
aa(lp3133
S'SCO6532'
p3134
aS'SCO6533'
p3135
aS'SCO6534'
p3136
aS'SCO6535'
p3137
aaS'SCO2473'
p3138
asS'DMATT'
p3139
(lp3140
S'SCO0185'
p3141
aS'SCO0565'
p3142
aS'SCO5250'
p3143
aS'SCO6763'
p3144
asS'PHETRS'
p3145
(lp3146
(lp3147
S'SCO1594'
p3148
aS'SCO1595'
p3149
aasS'ACACT8r'
p3150
(lp3151
S'SCO6788'
p3152
aS'SCO1324'
p3153
aS'SCO4502'
p3154
aS'SCO6027'
p3155
asS'ICDHyr'
p3156
(lp3157
S'SCO7000'
p3158
asS'EX_vanlt_LPAREN_e_RPAREN_'
p3159
(lp3160
g6
asS'APHi150'
p3161
(lp3162
S'SCO5576'
p3163
asS'FBP'
p3164
(lp3165
S'SCO5047'
p3166
asS'NTD4e'
p3167
(lp3168
S'SCO4152'
p3169
asS'MLTG2e'
p3170
(lp3171
S'SCO7019'
p3172
aS'SCO7020'
p3173
asS'THRPD'
p3174
(lp3175
g6
asS'FBA'
p3176
(lp3177
S'SCO3649'
p3178
asS'DXPS'
p3179
(lp3180
S'SCO6013'
p3181
aS'SCO6768'
p3182
asS'THRPS'
p3183
(lp3184
g6
asS'CBIAT'
p3185
(lp3186
S'SCO1851'
p3187
asS'URCN'
p3188
(lp3189
S'SCO3073'
p3190
asS'EX_pydam_LPAREN_e_RPAREN_'
p3191
(lp3192
g6
asS'ACOAD8f'
p3193
(lp3194
S'SCO1690'
p3195
aS'SCO2774'
p3196
aS'SCO6787'
p3197
asS'ARGTRS'
p3198
(lp3199
S'SCO3304'
p3200
aS'SCO5352'
p3201
asS'EX_ferrioxamB_LPAREN_e_RPAREN_'
p3202
(lp3203
g6
asS'EX_gmp_LPAREN_e_RPAREN_'
p3204
(lp3205
g6
asS'CDAS14a'
p3206
(lp3207
S'SCO3228'
p3208
asS'CDAS14b'
p3209
(lp3210
S'SCO3228'
p3211
asS'MNLD'
p3212
(lp3213
g6
asS'GLUSx'
p3214
(lp3215
S'SCO1977'
p3216
a(lp3217
S'SCO2025'
p3218
aS'SCO2026'
p3219
aasS'CTECOAI7'
p3220
(lp3221
S'SCO6732'
p3222
asS'EX_cytd_LPAREN_e_RPAREN_'
p3223
(lp3224
g6
asS'EX_rib_DASH_D_LPAREN_e_RPAREN_'
p3225
(lp3226
g6
asS'ABUTD'
p3227
(lp3228
S'SCO5657'
p3229
aS'SCO5666'
p3230
asS'ICL'
p3231
(lp3232
S'SCO0982'
p3233
asS'DGK1'
p3234
(lp3235
S'SCO1479'
p3236
asS'EX_gsn_LPAREN_e_RPAREN_'
p3237
(lp3238
g6
asS'ACS2'
p3239
(lp3240
S'SCO3563'
p3241
asS'3OARi130'
p3242
(lp3243
S'SCO1815'
p3244
aS'SCO1345'
p3245
aS'SCO1346'
p3246
aS'SCO4501'
p3247
aS'SCO1831'
p3248
aS'SCO4681'
p3249
aS'SCO0330'
p3250
asS'EX_acald_LPAREN_e_RPAREN_'
p3251
(lp3252
g6
asS'EX_cys_DASH_L_LPAREN_e_RPAREN_'
p3253
(lp3254
g6
asS'TECA3S'
p3255
(lp3256
g6
asS'TAGS141'
p3257
(lp3258
g6
asS'TAGS140'
p3259
(lp3260
g6
asS'PFK'
p3261
(lp3262
S'SCO5426'
p3263
aS'SCO2119'
p3264
aS'SCO1214'
p3265
asS'THRt2'
p3266
(lp3267
S'SCO4374'
p3268
aS'SCO3362'
p3269
asS'CLPNS170'
p3270
(lp3271
S'SCO7081'
p3272
asS'ORNTAC'
p3273
(lp3274
S'SCO1579'
p3275
asS'OCBTi'
p3276
(lp3277
S'SCO5976'
p3278
asS'EX_ile_DASH_L_LPAREN_e_RPAREN_'
p3279
(lp3280
g6
asS'DBTS'
p3281
(lp3282
S'SCO1246'
p3283
asS'EX_tartr_DASH_D_LPAREN_e_RPAREN_'
p3284
(lp3285
g6
asS'GUAPRT'
p3286
(lp3287
S'SCO3405'
p3288
asS'3OASai130'
p3289
(lp3290
S'SCO0548'
p3291
aS'SCO2390'
p3292
aS'SCO1266'
p3293
asS'TYRTRS'
p3294
(lp3295
S'SCO1818'
p3296
asS'3OASai90'
p3297
(lp3298
S'SCO0548'
p3299
aS'SCO2390'
p3300
aS'SCO1266'
p3301
asS'DASYNi150'
p3302
(lp3303
S'SCO5628'
p3304
asS'PSSA150'
p3305
(lp3306
S'SCO6467'
p3307
asS'FORCT'
p3308
(lp3309
S'SCO6583'
p3310
asS'ATPM'
p3311
(lp3312
g6
asS'GALCTNt2'
p3313
(lp3314
S'SCO0313'
p3315
asS'APH140'
p3316
(lp3317
S'SCO5576'
p3318
asS'APH141'
p3319
(lp3320
S'SCO5576'
p3321
asS'CYSabc'
p3322
(lp3323
S'SCO3947'
p3324
asS'FACOAE141'
p3325
(lp3326
S'SCO1153'
p3327
aS'SCO2773'
p3328
asS'FACOAE140'
p3329
(lp3330
S'SCO1153'
p3331
aS'SCO2773'
p3332
asS'MLTP1'
p3333
(lp3334
S'SCO5444'
p3335
asS'NNDMBRT'
p3336
(lp3337
S'SCO1554'
p3338
aS'SCO2175'
p3339
asS'GLUTCOADHc'
p3340
(lp3341
S'SCO1750'
p3342
asS'AHC'
p3343
(lp3344
S'SCO3023'
p3345
asS'PUTA3'
p3346
(lp3347
S'SCO5520'
p3348
asS'TAGSi150'
p3349
(lp3350
g6
asS'EX_etoh_LPAREN_e_RPAREN_'
p3351
(lp3352
g6
asS'EX_ser_DASH_L_LPAREN_e_RPAREN_'
p3353
(lp3354
g6
asS'OXPTNDH'
p3355
(lp3356
g6
asS'GLCS1'
p3357
(lp3358
S'SCO0962'
p3359
asS'DASYN170'
p3360
(lp3361
S'SCO5628'
p3362
asS'PINOS150'
p3363
(lp3364
S'SCO1527'
p3365
asS'EX_dad_DASH_2_LPAREN_e_RPAREN_'
p3366
(lp3367
g6
asS'3HADi100'
p3368
(lp3369
g6
asS'GTPDPK'
p3370
(lp3371
S'SCO1513'
p3372
aS'SCO5794'
p3373
asS'EX_ala_DASH_L_LPAREN_e_RPAREN_'
p3374
(lp3375
g6
asS'HBADAS'
p3376
(lp3377
S'SCO1852'
p3378
asS'UGLT'
p3379
(lp3380
S'SCO3138'
p3381
asS'THCHDH'
p3382
(lp3383
S'SCO6975'
p3384
asS'CLPNSII161'
p3385
(lp3386
S'SCO1389'
p3387
asS'CLPNSII160'
p3388
(lp3389
S'SCO1389'
p3390
asS'EX_fe2_LPAREN_e_RPAREN_'
p3391
(lp3392
g6
asS'5DGLCNR'
p3393
(lp3394
S'SCO1681'
p3395
asS'UAG2E'
p3396
(lp3397
g6
asS'EARai130y'
p3398
(lp3399
S'SCO1814'
p3400
asS'DHAt'
p3401
(lp3402
g6
asS'ACHBS'
p3403
(lp3404
(lp3405
S'SCO5512'
p3406
aS'SCO5513'
p3407
aaS'SCO2769'
p3408
asS'CHTBSabc'
p3409
(lp3410
(lp3411
S'SCO4240'
p3412
aS'SCO5232'
p3413
aS'SCO5233'
p3414
aS'SCO5234'
p3415
aa(lp3416
S'SCO4240'
p3417
aS'SCO6005'
p3418
aS'SCO6006'
p3419
aS'SCO6007'
p3420
aasS'FACOAE60'
p3421
(lp3422
S'SCO1153'
p3423
aS'SCO2773'
p3424
asS'CU1O'
p3425
(lp3426
(lp3427
S'SCO3439'
p3428
aS'SCO3440'
p3429
aS'SCO6712'
p3430
aasS'DHAK'
p3431
(lp3432
S'SCO0580'
p3433
asS'EAR160x'
p3434
(lp3435
S'SCO1814'
p3436
asS'EAR160y'
p3437
(lp3438
S'SCO1814'
p3439
asS'METOX1s'
p3440
(lp3441
S's0001'
p3442
asS'EX_indole_LPAREN_e_RPAREN_'
p3443
(lp3444
g6
asS'PPK2r'
p3445
(lp3446
S'SCO4145'
p3447
asS'EX_raffin_LPAREN_e_RPAREN_'
p3448
(lp3449
g6
asS'ABTA'
p3450
(lp3451
S'SCO5676'
p3452
aS'SCO7034'
p3453
asS'Kabc'
p3454
(lp3455
(lp3456
S'SCO3716'
p3457
aS'SCO3717'
p3458
aS'SCO3718'
p3459
aasS'OXOAEL'
p3460
(lp3461
S'SCO6339'
p3462
aS'SCO6697'
p3463
asS'PPRDNDH'
p3464
(lp3465
g6
asS'Kt2'
p3466
(lp3467
S'SCO3826'
p3468
asS'Kt3'
p3469
(lp3470
S'SCO1962'
p3471
asS'EX_cit_LPAREN_e_RPAREN_'
p3472
(lp3473
g6
asS'PC20M'
p3474
(lp3475
S'SCO1853'
p3476
asS'GALt4'
p3477
(lp3478
S'SCO3139'
p3479
asS'EARai110x'
p3480
(lp3481
S'SCO1814'
p3482
asS'HMBS'
p3483
(lp3484
S'SCO7343'
p3485
aS'SCO3318'
p3486
asS'GTPCI'
p3487
(lp3488
S'SCO3403'
p3489
asS'EX_h2o2_LPAREN_e_RPAREN_'
p3490
(lp3491
g6
asS'ACTS8'
p3492
(lp3493
(lp3494
S'SCO5087'
p3495
aS'SCO5088'
p3496
aasS'ACTS9'
p3497
(lp3498
(lp3499
S'SCO5087'
p3500
aS'SCO5088'
p3501
aasS'MLTG3e'
p3502
(lp3503
S'SCO7019'
p3504
aS'SCO7020'
p3505
asS'ACTS1'
p3506
(lp3507
S'SCO5089'
p3508
asS'ACTS2'
p3509
(lp3510
(lp3511
S'SCO5087'
p3512
aS'SCO5088'
p3513
aasS'ACTS3'
p3514
(lp3515
(lp3516
S'SCO5087'
p3517
aS'SCO5088'
p3518
aasS'ACTS4'
p3519
(lp3520
(lp3521
S'SCO5087'
p3522
aS'SCO5088'
p3523
aasS'ACTS5'
p3524
(lp3525
(lp3526
S'SCO5087'
p3527
aS'SCO5088'
p3528
aasS'ACTS6'
p3529
(lp3530
(lp3531
S'SCO5087'
p3532
aS'SCO5088'
p3533
aasS'ACTS7'
p3534
(lp3535
(lp3536
S'SCO5087'
p3537
aS'SCO5088'
p3538
aasS'FE2t2'
p3539
(lp3540
S'SCO4993'
p3541
asS'FE2t3'
p3542
(lp3543
S'SCO0776'
p3544
aS'SCO1310'
p3545
aS'SCO2772'
p3546
aS'SCO6751'
p3547
asS'SADT2'
p3548
(lp3549
(lp3550
S'SCO6097'
p3551
aS'SCO6098'
p3552
aasS'MANt2'
p3553
(lp3554
g6
asS'CPC5MT'
p3555
(lp3556
S'SCO1857'
p3557
asS'EX_desferrioxamB_LPAREN_e_RPAREN_'
p3558
(lp3559
g6
asS'ADNt2r'
p3560
(lp3561
g6
asS'UDCPDP'
p3562
(lp3563
S'SCO1326'
p3564
aS'SCO7047'
p3565
asS'EX_no_LPAREN_e_RPAREN_'
p3566
(lp3567
g6
asS'DHAD1'
p3568
(lp3569
S'SCO1176'
p3570
aS'SCO1888'
p3571
aS'SCO3345'
p3572
asS'DHAD2'
p3573
(lp3574
S'SCO1176'
p3575
aS'SCO1888'
p3576
aS'SCO3345'
p3577
asS'ADPT'
p3578
(lp3579
S'SCO1514'
p3580
asS'NI2t'
p3581
(lp3582
S'SCO1667'
p3583
aS'SCO5157'
p3584
asS'HACD7'
p3585
(lp3586
S'SCO6732'
p3587
asS'TAGSai170'
p3588
(lp3589
g6
asS'3HADi110'
p3590
(lp3591
g6
asS'3OAS180'
p3592
(lp3593
S'SCO0548'
p3594
aS'SCO2390'
p3595
aS'SCO1266'
p3596
asS'3OAS181'
p3597
(lp3598
S'SCO0548'
p3599
aS'SCO2390'
p3600
aS'SCO1266'
p3601
asS'THFAT'
p3602
(lp3603
S'SCO4837'
p3604
aS'SCO5470'
p3605
aS'SCO5364'
p3606
asS'CAT'
p3607
(lp3608
S'SCO0379'
p3609
aS'SCO0560'
p3610
a(lp3611
S'SCO0666'
p3612
aS'SCO2529'
p3613
aaS'SCO6204'
p3614
aS'SCO7590'
p3615
asS'HEX1'
p3616
(lp3617
S'SCO2126'
p3618
aS'SCO6260'
p3619
aS'SCO1077'
p3620
a(lp3621
S'SCO4145'
p3622
aS'SCO5059'
p3623
aasS'HEX4'
p3624
(lp3625
g6
asS'TECA2S'
p3626
(lp3627
g6
asS'PPNDH'
p3628
(lp3629
S'SCO3962'
p3630
asS'PGL'
p3631
(lp3632
S'SCO1939'
p3633
asS'PGM'
p3634
(lp3635
S'SCO2576'
p3636
aS'SCO4209'
p3637
aS'SCO6818'
p3638
asS'PGK'
p3639
(lp3640
S'SCO1946'
p3641
asS'PGI'
p3642
(lp3643
S'SCO1942'
p3644
aS'SCO6659'
p3645
asS'FACOAL140'
p3646
(lp3647
S'SCO6196'
p3648
aS'SCO6195'
p3649
aS'SCO2131'
p3650
aS'SCO2444'
p3651
aS'SCO2561'
p3652
aS'SCO2720'
p3653
aS'SCO3436'
p3654
aS'SCO4006'
p3655
aS'SCO5983'
p3656
aS'SCO6552'
p3657
aS'SCO6968'
p3658
aS'SCO7244'
p3659
asS'FACOAL141'
p3660
(lp3661
S'SCO6196'
p3662
aS'SCO6195'
p3663
aS'SCO2131'
p3664
aS'SCO2444'
p3665
aS'SCO2561'
p3666
aS'SCO2720'
p3667
aS'SCO3436'
p3668
aS'SCO4006'
p3669
aS'SCO5983'
p3670
aS'SCO6552'
p3671
aS'SCO6968'
p3672
aS'SCO7244'
p3673
asS'3NTD9e'
p3674
(lp3675
S'SCO2015'
p3676
asS'ASPTRS'
p3677
(lp3678
S'SCO3795'
p3679
asS'ASPabc'
p3680
(lp3681
(lp3682
S'SCO5774'
p3683
aS'SCO5775'
p3684
aS'SCO5776'
p3685
aS'SCO5777'
p3686
aasS'S2FE2SR'
p3687
(lp3688
(lp3689
S'SCO1921'
p3690
aS'SCO1922'
p3691
aS'SCO1924'
p3692
aS'SCO1925'
p3693
aasS'S2FE2SS'
p3694
(lp3695
(lp3696
S'SCO1921'
p3697
aS'SCO1922'
p3698
aS'SCO1924'
p3699
aS'SCO1925'
p3700
aasS'S2FE2ST'
p3701
(lp3702
(lp3703
S'SCO1922'
p3704
aS'SCO1924'
p3705
aS'SCO1925'
p3706
aasS'PPA'
p3707
(lp3708
S'SCO3409'
p3709
asS'ACPpdsredQ'
p3710
(lp3711
S'SCO0046'
p3712
asS'ACPpdsredN'
p3713
(lp3714
S'SCO0046'
p3715
asS'DM_DALUA'
p3716
(lp3717
g6
asS'ACPpdsredL'
p3718
(lp3719
S'SCO0046'
p3720
asS'ACPPAT120'
p3721
(lp3722
g6
asS'EX_epm_LPAREN_e_RPAREN_'
p3723
(lp3724
g6
asS'EX_g3pc_LPAREN_e_RPAREN_'
p3725
(lp3726
g6
asS'OHPBAT'
p3727
(lp3728
S'SCO4366'
p3729
asS'23PDE9e'
p3730
(lp3731
S'SCO2015'
p3732
asS'PAPA180'
p3733
(lp3734
g6
asS'PAPA181'
p3735
(lp3736
g6
asS'PRATPP'
p3737
(lp3738
S'SCO1439'
p3739
asS'FUTALH'
p3740
(lp3741
S'SCO4327'
p3742
asS'GLYCAt2r'
p3743
(lp3744
S'SCO2541'
p3745
asS'3OARi120'
p3746
(lp3747
S'SCO1815'
p3748
aS'SCO1345'
p3749
aS'SCO1346'
p3750
aS'SCO4501'
p3751
aS'SCO1831'
p3752
aS'SCO4681'
p3753
aS'SCO0330'
p3754
asS'BMOGDS1'
p3755
(lp3756
S'SCO3828'
p3757
asS'PAPSR'
p3758
(lp3759
(lp3760
S'SCO0885'
p3761
aS'SCO6100'
p3762
aaS'SCO3889'
p3763
aS'SCO5419'
p3764
aS'SCO5438'
p3765
asS'5DOAN'
p3766
(lp3767
g6
asS'BMOGDS2'
p3768
(lp3769
S'SCO3828'
p3770
asS'TAGS150'
p3771
(lp3772
g6
asS'PRAIS'
p3773
(lp3774
S'SCO4087'
p3775
asS'ILEabc'
p3776
(lp3777
(lp3778
S'SCO0706'
p3779
aS'SCO0707'
p3780
aS'SCO0708'
p3781
aS'SCO0709'
p3782
aS'SCO0710'
p3783
aa(lp3784
S'SCO2008'
p3785
aS'SCO2009'
p3786
aS'SCO2010'
p3787
aS'SCO2011'
p3788
aS'SCO2012'
p3789
aa(lp3790
S'SCO7181'
p3791
aS'SCO7182'
p3792
aS'SCO7183'
p3793
aS'SCO7184'
p3794
aS'SCO7185'
p3795
aasS'MPTAT'
p3796
(lp3797
S'SCO3179'
p3798
asS'CLPNS161'
p3799
(lp3800
S'SCO7081'
p3801
asS'CLPNS160'
p3802
(lp3803
S'SCO7081'
p3804
asS'EARi110y'
p3805
(lp3806
S'SCO1814'
p3807
asS'EARi110x'
p3808
(lp3809
S'SCO1814'
p3810
asS'ACTt'
p3811
(lp3812
(lp3813
S'SCO5083'
p3814
aS'SCO5084'
p3815
aasS'3OARai170'
p3816
(lp3817
S'SCO1815'
p3818
aS'SCO1345'
p3819
aS'SCO1346'
p3820
aS'SCO4501'
p3821
aS'SCO1831'
p3822
aS'SCO4681'
p3823
aS'SCO0330'
p3824
asS'3OAS60'
p3825
(lp3826
S'SCO0548'
p3827
aS'SCO2390'
p3828
aS'SCO1266'
p3829
asS'EX_alaala_LPAREN_e_RPAREN_'
p3830
(lp3831
g6
asS'EX_ferrioxamE_LPAREN_e_RPAREN_'
p3832
(lp3833
g6
asS'PSSA161'
p3834
(lp3835
S'SCO6467'
p3836
asS'PSSA160'
p3837
(lp3838
S'SCO6467'
p3839
asS'DASYNi140'
p3840
(lp3841
S'SCO5628'
p3842
asS'PYK'
p3843
(lp3844
S'SCO2014'
p3845
aS'SCO5423'
p3846
asS'ARBabc'
p3847
(lp3848
(lp3849
S'SCO6567'
p3850
aS'SCO6568'
p3851
aS'SCO6569'
p3852
aasS'CU2t'
p3853
(lp3854
g6
asS'APH150'
p3855
(lp3856
S'SCO5576'
p3857
asS'ACOAD7f'
p3858
(lp3859
S'SCO1690'
p3860
aS'SCO2774'
p3861
aS'SCO6787'
p3862
asS'TAGSi140'
p3863
(lp3864
g6
asS'ACOADH1'
p3865
(lp3866
S'SCO2779'
p3867
asS'ILETA'
p3868
(lp3869
S'SCO1546'
p3870
aS'SCO5523'
p3871
asS'PRDX'
p3872
(lp3873
S'SCO0560'
p3874
asS'NTPP9'
p3875
(lp3876
S'SCO2902'
p3877
asS'PINOS160'
p3878
(lp3879
S'SCO1527'
p3880
asS'PINOS161'
p3881
(lp3882
S'SCO1527'
p3883
asS'TAURabc'
p3884
(lp3885
(lp3886
S'SCO7544'
p3887
aS'SCO7545'
p3888
aS'SCO7546'
p3889
aasS'EX_h_LPAREN_e_RPAREN_'
p3890
(lp3891
g6
asS'EX_salcn_LPAREN_e_RPAREN_'
p3892
(lp3893
g6
asS'DASYN140'
p3894
(lp3895
S'SCO5628'
p3896
asS'DASYN141'
p3897
(lp3898
S'SCO5628'
p3899
asS'HACD1'
p3900
(lp3901
S'SCO6732'
p3902
asS'AOXSr2'
p3903
(lp3904
S'SCO1243'
p3905
aS'SCO5890'
p3906
asS'HACD3'
p3907
(lp3908
S'SCO6732'
p3909
asS'HACD2'
p3910
(lp3911
S'SCO6732'
p3912
asS'HACD5'
p3913
(lp3914
S'SCO6732'
p3915
asS'HACD4'
p3916
(lp3917
S'SCO6732'
p3918
asS'PCPpdsredO'
p3919
(lp3920
S'SCO0046'
p3921
asS'HACD6'
p3922
(lp3923
S'SCO6732'
p3924
asS'HACD9'
p3925
(lp3926
S'SCO6732'
p3927
asS'HACD8'
p3928
(lp3929
S'SCO6732'
p3930
asS'AMALT4'
p3931
(lp3932
S'SCO2649'
p3933
asS'AMALT3'
p3934
(lp3935
S'SCO2649'
p3936
asS'AMALT2'
p3937
(lp3938
S'SCO2649'
p3939
asS'AMALT1'
p3940
(lp3941
S'SCO2649'
p3942
asS'NTPP1'
p3943
(lp3944
S'SCO3100'
p3945
asS'CHLt2'
p3946
(lp3947
S'SCO6739'
p3948
asS'AIRCr'
p3949
(lp3950
(lp3951
S'SCO3059'
p3952
aS'SCO3060'
p3953
aasS'CLPNSII150'
p3954
(lp3955
S'SCO1389'
p3956
asS'ADSS'
p3957
(lp3958
S'SCO3629'
p3959
asS'3OAR130'
p3960
(lp3961
S'SCO1815'
p3962
aS'SCO1345'
p3963
aS'SCO1346'
p3964
aS'SCO4501'
p3965
aS'SCO1831'
p3966
aS'SCO4681'
p3967
aS'SCO0330'
p3968
asS'SHSL1'
p3969
(lp3970
S'SCO1294'
p3971
aS'SCO4958'
p3972
asS'MTHFR2'
p3973
(lp3974
S'SCO2103'
p3975
asS'SHSL4'
p3976
(lp3977
S'SCO1294'
p3978
aS'SCO4958'
p3979
asS'EX_glu_DASH_L_LPAREN_e_RPAREN_'
p3980
(lp3981
g6
asS'ADSK'
p3982
(lp3983
S'SCO6099'
p3984
asS'PC3BS'
p3985
(lp3986
g6
asS'INS2D'
p3987
(lp3988
S'SCO6255'
p3989
aS'SCO6984'
p3990
aS'SCO7254'
p3991
asS'EX_3amp_LPAREN_e_RPAREN_'
p3992
(lp3993
g6
asS'ALATA_L'
p3994
(lp3995
S'SCO4984'
p3996
aS'SCO6222'
p3997
asS'MALt2_2'
p3998
(lp3999
S'SCO5436'
p4000
asS'SERTRS'
p4001
(lp4002
S'SCO3961'
p4003
asS'EX_2ddglcn_LPAREN_e_RPAREN_'
p4004
(lp4005
g6
asS'CYTDt2r'
p4006
(lp4007
g6
asS'3HADai170'
p4008
(lp4009
g6
asS'PACCOAL'
p4010
(lp4011
S'SCO7469'
p4012
asS'CPC2MT'
p4013
(lp4014
S'SCO1853'
p4015
asS'MPTS'
p4016
(lp4017
S'SCO5201'
p4018
asS'DB4PS'
p4019
(lp4020
S'SCO1441'
p4021
asS'3OASi170'
p4022
(lp4023
S'SCO0548'
p4024
aS'SCO2390'
p4025
aS'SCO1266'
p4026
asS'PACCOAE'
p4027
(lp4028
(lp4029
S'SCO7471'
p4030
aS'SCO7472'
p4031
aS'SCO7473'
p4032
aS'SCO7474'
p4033
aS'SCO7475'
p4034
aasS'MPTG'
p4035
(lp4036
S'SCO3847'
p4037
a(lp4038
S'SCO2709'
p4039
aS'SCO5301'
p4040
aaS'SCO3894'
p4041
asS'GLYCK'
p4042
(lp4043
S'SCO2145'
p4044
aS'SCO6466'
p4045
asS'GLYCL'
p4046
(lp4047
(lp4048
S'SCO0884'
p4049
aS'SCO1378'
p4050
aS'SCO5471'
p4051
aS'SCO5472'
p4052
aaS'SCO2180'
p4053
aS'SCO4919'
p4054
asS'GSNt2'
p4055
(lp4056
g6
asS'HISTD'
p4057
(lp4058
S'SCO2054'
p4059
asS'ASP1DC'
p4060
(lp4061
(lp4062
S'SCO0978'
p4063
aS'SCO3416'
p4064
aasS'APG3PAT120'
p4065
(lp4066
g6
asS'XYLI1'
p4067
(lp4068
S'SCO1169'
p4069
asS'EX_g3ps_LPAREN_e_RPAREN_'
p4070
(lp4071
g6
asS'XYLI2'
p4072
(lp4073
S'SCO1169'
p4074
asS'THRTRS'
p4075
(lp4076
S'SCO1531'
p4077
aS'SCO3778'
p4078
asS'GLYCt'
p4079
(lp4080
S'SCO1659'
p4081
aS'SCO4057'
p4082
asS'SSALy'
p4083
(lp4084
S'SCO1204'
p4085
aS'SCO4780'
p4086
aS'SCO7035'
p4087
asS'ALAALAabc'
p4088
(lp4089
(lp4090
S'SCO5110'
p4091
aS'SCO5112'
p4092
aS'SCO5113'
p4093
aS'SCO5114'
p4094
aS'SCO5115'
p4095
aa(lp4096
S'SCO5117'
p4097
aS'SCO5118'
p4098
aS'SCO5119'
p4099
aS'SCO5120'
p4100
aS'SCO5121'
p4101
aa(lp4102
S'SCO5712'
p4103
aS'SCO5713'
p4104
aS'SCO5714'
p4105
aS'SCO5716'
p4106
aasS'EAR170y'
p4107
(lp4108
S'SCO1814'
p4109
asS'EAR170x'
p4110
(lp4111
S'SCO1814'
p4112
asS'PINOS180'
p4113
(lp4114
S'SCO1527'
p4115
asS'ACOAD8'
p4116
(lp4117
S'SCO2779'
p4118
asS'SERD_L'
p4119
(lp4120
S'SCO0821'
p4121
aS'SCO4962'
p4122
aS'SCO5469'
p4123
asS'ACBIPGT'
p4124
(lp4125
S'SCO2173'
p4126
asS'PINOSi160'
p4127
(lp4128
S'SCO1527'
p4129
asS'KARA2i'
p4130
(lp4131
S'SCO5514'
p4132
aS'SCO7154'
p4133
asS'ALATA_L2'
p4134
(lp4135
S'SCO1087'
p4136
aS'SCO4837'
p4137
aS'SCO5470'
p4138
aS'SCO5364'
p4139
asS'PPPGO'
p4140
(lp4141
S'SCO6041'
p4142
asS'EX_cd2_LPAREN_e_RPAREN_'
p4143
(lp4144
g6
asS'ACPpds'
p4145
(lp4146
S'SCO0046'
p4147
asS'HEMEOS'
p4148
(lp4149
S'SCO1934'
p4150
asS'PRASCSi'
p4151
(lp4152
S'SCO4071'
p4153
asS'GUAt'
p4154
(lp4155
g6
asS'RPE'
p4156
(lp4157
S'SCO1464'
p4158
asS'PHEt2r'
p4159
(lp4160
S'SCO2914'
p4161
asS'BETALDHx'
p4162
(lp4163
S'SCO4828'
p4164
asS'HISTP'
p4165
(lp4166
S'SCO5208'
p4167
asS'RPI'
p4168
(lp4169
S'SCO0579'
p4170
aS'SCO1224'
p4171
aS'SCO2627'
p4172
asS'PSDi150'
p4173
(lp4174
S'SCO6468'
p4175
asS'CDAS10'
p4176
(lp4177
g6
asS'CDAS11'
p4178
(lp4179
S'SCO3247'
p4180
asS'CDAS12'
p4181
(lp4182
S'SCO3245'
p4183
asS'CDAS13'
p4184
(lp4185
S'SCO3229'
p4186
asS'CDAS15'
p4187
(lp4188
S'SCO3227'
p4189
asS'CDAS16'
p4190
(lp4191
S'SCO3215'
p4192
asS'CDAS17'
p4193
(lp4194
(lp4195
S'SCO3230'
p4196
aS'SCO3231'
p4197
aS'SCO3232'
p4198
aasS'CDAS18'
p4199
(lp4200
S'SCO3236'
p4201
asS'CDAS19'
p4202
(lp4203
S'SCO3234'
p4204
asS'CDAS6'
p4205
(lp4206
S'SCO3248'
p4207
asS'G3PD2'
p4208
(lp4209
S'SCO5559'
p4210
asS'CDAS4'
p4211
(lp4212
g6
asS'CDAS2'
p4213
(lp4214
(lp4215
S'SCO3246'
p4216
aS'SCO3249'
p4217
aasS'CDAS3'
p4218
(lp4219
S'SCO1815'
p4220
aS'SCO1345'
p4221
aS'SCO1346'
p4222
aS'SCO4501'
p4223
aS'SCO1831'
p4224
aS'SCO4681'
p4225
aS'SCO0330'
p4226
asS'EX_btn_LPAREN_e_RPAREN_'
p4227
(lp4228
g6
asS'CDAS1'
p4229
(lp4230
(lp4231
S'SCO2387'
p4232
aS'SCO3249'
p4233
aasS'SKMt2'
p4234
(lp4235
S'SCO1010'
p4236
asS'THYMt3r'
p4237
(lp4238
g6
asS'CDAS8'
p4239
(lp4240
g6
asS'ZN2t3'
p4241
(lp4242
S'SCO0776'
p4243
aS'SCO1310'
p4244
aS'SCO2772'
p4245
aS'SCO6751'
p4246
asS'RMPA'
p4247
(lp4248
g6
asS'GLXCL'
p4249
(lp4250
S'SCO6201'
p4251
asS'EX_ca2_LPAREN_e_RPAREN_'
p4252
(lp4253
g6
asS'PYDXNK'
p4254
(lp4255
g6
asS'DNADDP'
p4256
(lp4257
S'SCO5186'
p4258
asS'MLTG4e'
p4259
(lp4260
S'SCO7019'
p4261
aS'SCO7020'
p4262
asS'LYXI'
p4263
(lp4264
S'SCO0812'
p4265
asS'APRAUR'
p4266
(lp4267
S'SCO2688'
p4268
aS'SCO6058'
p4269
aS'SCO4106'
p4270
asS'3HAD40'
p4271
(lp4272
g6
asS'EARai90y'
p4273
(lp4274
S'SCO1814'
p4275
asS'EARai90x'
p4276
(lp4277
S'SCO1814'
p4278
asS'DDGK'
p4279
(lp4280
S'SCO6978'
p4281
asS'EX_glyald_LPAREN_e_RPAREN_'
p4282
(lp4283
g6
asS'NAMNPP'
p4284
(lp4285
S'SCO0171'
p4286
aS'SCO2917'
p4287
asS'BWCOGDS2'
p4288
(lp4289
S'SCO3828'
p4290
asS'BWCOGDS1'
p4291
(lp4292
S'SCO3828'
p4293
asS'THRabc'
p4294
(lp4295
(lp4296
S'SCO0706'
p4297
aS'SCO0707'
p4298
aS'SCO0708'
p4299
aS'SCO0709'
p4300
aS'SCO0710'
p4301
aa(lp4302
S'SCO2008'
p4303
aS'SCO2009'
p4304
aS'SCO2010'
p4305
aS'SCO2011'
p4306
aS'SCO2012'
p4307
aa(lp4308
S'SCO7181'
p4309
aS'SCO7182'
p4310
aS'SCO7183'
p4311
aS'SCO7184'
p4312
aS'SCO7185'
p4313
aasS'EX_lac_DASH_D_LPAREN_e_RPAREN_'
p4314
(lp4315
g6
asS'ACOTA'
p4316
(lp4317
S'SCO1577'
p4318
asS'ALCD2x'
p4319
(lp4320
S'SCO0199'
p4321
aS'SCO0259'
p4322
aS'SCO5262'
p4323
aS'SCO7362'
p4324
asS'PCADYOX'
p4325
(lp4326
(lp4327
S'SCO6699'
p4328
aS'SCO6700'
p4329
aasS'UAPGR'
p4330
(lp4331
S'SCO4643'
p4332
asS'GLBRAN2'
p4333
(lp4334
S'SCO5440'
p4335
aS'SCO7332'
p4336
asS'PPAKr'
p4337
(lp4338
S'SCO5424'
p4339
asS'3OARi110'
p4340
(lp4341
S'SCO1815'
p4342
aS'SCO1345'
p4343
aS'SCO1346'
p4344
aS'SCO4501'
p4345
aS'SCO1831'
p4346
aS'SCO4681'
p4347
aS'SCO0330'
p4348
asS'EX_15dap_LPAREN_e_RPAREN_'
p4349
(lp4350
g6
asS'TECA1S'
p4351
(lp4352
g6
asS'PROt2r'
p4353
(lp4354
S'SCO1225'
p4355
aS'SCO2336'
p4356
aS'SCO7395'
p4357
asS'TAGS161'
p4358
(lp4359
g6
asS'TAGS160'
p4360
(lp4361
g6
asS'HEMEAS'
p4362
(lp4363
S'SCO1930'
p4364
asS'FOMETRi'
p4365
(lp4366
S'SCO3183'
p4367
asS'3OARi70'
p4368
(lp4369
S'SCO1815'
p4370
aS'SCO1345'
p4371
aS'SCO1346'
p4372
aS'SCO4501'
p4373
aS'SCO1831'
p4374
aS'SCO4681'
p4375
aS'SCO0330'
p4376
asS'DHQS'
p4377
(lp4378
S'SCO1494'
p4379
asS'ACGS'
p4380
(lp4381
S'SCO1579'
p4382
aS'SCO3376'
p4383
asS'TAGS181'
p4384
(lp4385
g6
asS'TAGS180'
p4386
(lp4387
g6
asS'3OASai110'
p4388
(lp4389
S'SCO0548'
p4390
aS'SCO2390'
p4391
aS'SCO1266'
p4392
asS'DM_AMOB'
p4393
(lp4394
g6
asS'GTHRDH'
p4395
(lp4396
S'SCO5945'
p4397
aS'SCO6407'
p4398
aS'SCO6444'
p4399
asS'ACGK'
p4400
(lp4401
S'SCO1578'
p4402
asS'CA2t4'
p4403
(lp4404
S'SCO1962'
p4405
asS'3OAS70'
p4406
(lp4407
S'SCO0548'
p4408
aS'SCO2390'
p4409
aS'SCO1266'
p4410
asS'TGBPA'
p4411
(lp4412
(lp4413
S'SCO5848'
p4414
aS'SCO5852'
p4415
aasS'HISD'
p4416
(lp4417
S'SCO4932'
p4418
asS'EX_cbl1_LPAREN_e_RPAREN_'
p4419
(lp4420
g6
asS'EARi100x'
p4421
(lp4422
S'SCO1814'
p4423
asS'DASYNi170'
p4424
(lp4425
S'SCO5628'
p4426
asS'EAR70y'
p4427
(lp4428
S'SCO1814'
p4429
asS'EAR70x'
p4430
(lp4431
S'SCO1814'
p4432
asS'PSSA170'
p4433
(lp4434
S'SCO6467'
p4435
asS'FACOAE161'
p4436
(lp4437
S'SCO1153'
p4438
aS'SCO2773'
p4439
asS'FACOAE160'
p4440
(lp4441
S'SCO1153'
p4442
aS'SCO2773'
p4443
asS'APH120'
p4444
(lp4445
S'SCO5576'
p4446
asS'APHi140'
p4447
(lp4448
S'SCO5576'
p4449
asS'GTPCIII2'
p4450
(lp4451
S'SCO6655'
p4452
asS'ALDD2x'
p4453
(lp4454
S'SCO1174'
p4455
aS'SCO1706'
p4456
aS'SCO3420'
p4457
aS'SCO4913'
p4458
aS'SCO5679'
p4459
asS'PINOS181'
p4460
(lp4461
S'SCO1527'
p4462
asS'GCALDD'
p4463
(lp4464
S'SCO3486'
p4465
asS'ZNabc'
p4466
(lp4467
(lp4468
S'SCO0473'
p4469
aS'SCO0475'
p4470
aS'SCO0476'
p4471
aa(lp4472
S'SCO2505'
p4473
aS'SCO2506'
p4474
aS'SCO2507'
p4475
aasS'UREA'
p4476
(lp4477
(lp4478
S'SCO1234'
p4479
aS'SCO1235'
p4480
aS'SCO1236'
p4481
aa(lp4482
S'SCO5525'
p4483
aS'SCO5526'
p4484
aasS'EX_so4_LPAREN_e_RPAREN_'
p4485
(lp4486
g6
asS'ANS'
p4487
(lp4488
(lp4489
S'SCO3213'
p4490
aS'SCO3214'
p4491
aaS'SCO2043'
p4492
aS'SCO2117'
p4493
asS'NADK'
p4494
(lp4495
S'SCO1781'
p4496
asS'DASYN150'
p4497
(lp4498
S'SCO5628'
p4499
asS'PINOS170'
p4500
(lp4501
S'SCO1527'
p4502
asS'3HADi120'
p4503
(lp4504
g6
asS'TMK'
p4505
(lp4506
g6
asS'FESD1s'
p4507
(lp4508
S's0001'
p4509
asS'EX_pydx_LPAREN_e_RPAREN_'
p4510
(lp4511
g6
asS'LYSabc'
p4512
(lp4513
(lp4514
S'SCO2828'
p4515
aS'SCO2829'
p4516
aS'SCO2830'
p4517
aS'SCO2831'
p4518
aasS'3OARai70'
p4519
(lp4520
S'SCO1815'
p4521
aS'SCO1345'
p4522
aS'SCO1346'
p4523
aS'SCO4501'
p4524
aS'SCO1831'
p4525
aS'SCO4681'
p4526
aS'SCO0330'
p4527
asS'ETOHtr'
p4528
(lp4529
S's0001'
p4530
asS'TALA'
p4531
(lp4532
S'SCO1936'
p4533
aS'SCO6662'
p4534
asS'LFORKYNHYD'
p4535
(lp4536
S'SCO3645'
p4537
asS'HSST'
p4538
(lp4539
g6
asS'3OAR141'
p4540
(lp4541
S'SCO1815'
p4542
aS'SCO1345'
p4543
aS'SCO1346'
p4544
aS'SCO4501'
p4545
aS'SCO1831'
p4546
aS'SCO4681'
p4547
aS'SCO0330'
p4548
asS'3OAR140'
p4549
(lp4550
S'SCO1815'
p4551
aS'SCO1345'
p4552
aS'SCO1346'
p4553
aS'SCO4501'
p4554
aS'SCO1831'
p4555
aS'SCO4681'
p4556
aS'SCO0330'
p4557
asS'DXPRIi'
p4558
(lp4559
S'SCO5694'
p4560
asS'EX_galctn_DASH_D_LPAREN_e_RPAREN_'
p4561
(lp4562
g6
asS'MNt2'
p4563
(lp4564
S'SCO4993'
p4565
asS'PAPSR3'
p4566
(lp4567
S'SCO6100'
p4568
asS'FACOAL120'
p4569
(lp4570
S'SCO6196'
p4571
aS'SCO6195'
p4572
aS'SCO2131'
p4573
aS'SCO2444'
p4574
aS'SCO2561'
p4575
aS'SCO2720'
p4576
aS'SCO3436'
p4577
aS'SCO4006'
p4578
aS'SCO5983'
p4579
aS'SCO6552'
p4580
aS'SCO6968'
p4581
aS'SCO7244'
p4582
asS'FACOAE181'
p4583
(lp4584
S'SCO1153'
p4585
aS'SCO2773'
p4586
asS'FACOAE180'
p4587
(lp4588
S'SCO1153'
p4589
aS'SCO2773'
p4590
asS'PUNP6'
p4591
(lp4592
S'SCO4917'
p4593
asS'PUNP7'
p4594
(lp4595
S'SCO4917'
p4596
asS'PUNP1'
p4597
(lp4598
S'SCO4917'
p4599
asS'PUNP2'
p4600
(lp4601
S'SCO4917'
p4602
asS'PUNP3'
p4603
(lp4604
S'SCO4917'
p4605
asS'EX_thym_LPAREN_e_RPAREN_'
p4606
(lp4607
g6
asS'ASPO1'
p4608
(lp4609
S'SCO3382'
p4610
asS'PMPK'
p4611
(lp4612
S'SCO5563'
p4613
asS'ASPO5'
p4614
(lp4615
S'SCO3382'
p4616
asS'ASPO6'
p4617
(lp4618
S'SCO3382'
p4619
asS'3OASi100'
p4620
(lp4621
S'SCO0548'
p4622
aS'SCO2390'
p4623
aS'SCO1266'
p4624
asS'CPMPS'
p4625
(lp4626
(lp4627
S'SCO1821'
p4628
aS'SCO3180'
p4629
aasS'EX_malthx_LPAREN_e_RPAREN_'
p4630
(lp4631
g6
asS'EX_na1_LPAREN_e_RPAREN_'
p4632
(lp4633
g6
asS'EX_gln_DASH_L_LPAREN_e_RPAREN_'
p4634
(lp4635
g6
asS'EX_mal_DASH_L_LPAREN_e_RPAREN_'
p4636
(lp4637
g6
asS'MYCTR'
p4638
(lp4639
g6
asS'CSNt2'
p4640
(lp4641
S'SCO0572'
p4642
asS'3OASi70'
p4643
(lp4644
S'SCO0548'
p4645
aS'SCO2390'
p4646
aS'SCO1266'
p4647
asS'MLTG5e'
p4648
(lp4649
S'SCO7019'
p4650
aS'SCO7020'
p4651
asS'GGLt2'
p4652
(lp4653
g6
asS'CLPNSII141'
p4654
(lp4655
S'SCO1389'
p4656
asS'CLPNSII140'
p4657
(lp4658
S'SCO1389'
p4659
asS'BGLU'
p4660
(lp4661
S'SCO0293'
p4662
aS'SCO0458'
p4663
aS'SCO1059'
p4664
aS'SCO2531'
p4665
aS'SCO2798'
p4666
aS'SCO5685'
p4667
aS'SCO6597'
p4668
aS'SCO6604'
p4669
aS'SCO7031'
p4670
aS'SCO7558'
p4671
asS'NADTRHD'
p4672
(lp4673
(lp4674
S'SCO7622'
p4675
aS'SCO7623'
p4676
aasS'IPPS'
p4677
(lp4678
S'SCO2528'
p4679
aS'SCO5529'
p4680
asS'ECTS'
p4681
(lp4682
S'SCO1866'
p4683
asS'LIPOt2'
p4684
(lp4685
g6
asS'ARGt3'
p4686
(lp4687
S'SCO7308'
p4688
asS'ECTH'
p4689
(lp4690
S'SCO1867'
p4691
asS'TAGSai150'
p4692
(lp4693
g6
asS'EX_ac_LPAREN_e_RPAREN_'
p4694
(lp4695
g6
asS'EX_thm_LPAREN_e_RPAREN_'
p4696
(lp4697
g6
asS'FORAMD'
p4698
(lp4699
g6
asS'PSDi140'
p4700
(lp4701
S'SCO6468'
p4702
asS'EAR100x'
p4703
(lp4704
S'SCO1814'
p4705
asS'EAR100y'
p4706
(lp4707
S'SCO1814'
p4708
asS'NTPTP2'
p4709
(lp4710
S'SCO2470'
p4711
asS'ACOAD9'
p4712
(lp4713
S'SCO2779'
p4714
asS'DHNAS'
p4715
(lp4716
S'SCO4326'
p4717
asS'PSD120'
p4718
(lp4719
S'SCO6468'
p4720
asS'ALALAC'
p4721
(lp4722
S'SCO3595'
p4723
asS'DASYN160'
p4724
(lp4725
S'SCO5628'
p4726
asS'PSERT'
p4727
(lp4728
S'SCO4366'
p4729
asS'CUt3'
p4730
(lp4731
g6
asS'DHNAI'
p4732
(lp4733
g6
asS'EX_dha_LPAREN_e_RPAREN_'
p4734
(lp4735
g6
asS'PAPAi180'
p4736
(lp4737
g6
asS'FACOAL160'
p4738
(lp4739
S'SCO6196'
p4740
aS'SCO6195'
p4741
aS'SCO2131'
p4742
aS'SCO2444'
p4743
aS'SCO2561'
p4744
aS'SCO2720'
p4745
aS'SCO3436'
p4746
aS'SCO4006'
p4747
aS'SCO5983'
p4748
aS'SCO6552'
p4749
aS'SCO6968'
p4750
aS'SCO7244'
p4751
asS'FACOAL161'
p4752
(lp4753
S'SCO6196'
p4754
aS'SCO6195'
p4755
aS'SCO2131'
p4756
aS'SCO2444'
p4757
aS'SCO2561'
p4758
aS'SCO2720'
p4759
aS'SCO3436'
p4760
aS'SCO4006'
p4761
aS'SCO5983'
p4762
aS'SCO6552'
p4763
aS'SCO6968'
p4764
aS'SCO7244'
p4765
asS'CLPNSai150'
p4766
(lp4767
S'SCO7081'
p4768
asS'14GLUCANabc'
p4769
(lp4770
(lp4771
S'SCO2229'
p4772
aS'SCO2230'
p4773
aS'SCO2231'
p4774
aS'SCO4240'
p4775
aasS'NNDPR'
p4776
(lp4777
S'SCO3381'
p4778
asS'SUCCt2_2'
p4779
(lp4780
S'SCO5436'
p4781
asS'PINOSi150'
p4782
(lp4783
S'SCO1527'
p4784
asS'3HADi170'
p4785
(lp4786
g6
asS'MACPD'
p4787
(lp4788
S'SCO0548'
p4789
asS'GALIt2'
p4790
(lp4791
g6
asS'BETALDHy'
p4792
(lp4793
S'SCO4828'
p4794
asS'EX_man_LPAREN_e_RPAREN_'
p4795
(lp4796
g6
asS'CPC6R'
p4797
(lp4798
S'SCO3283'
p4799
asS'4PCP'
p4800
(lp4801
S'SCO6489'
p4802
asS'GLGC'
p4803
(lp4804
S'SCO0961'
p4805
asS'TKT2'
p4806
(lp4807
S'SCO1935'
p4808
aS'SCO6497'
p4809
aS'SCO6663'
p4810
asS'TKT1'
p4811
(lp4812
S'SCO1935'
p4813
aS'SCO6497'
p4814
aS'SCO6663'
p4815
asS'GLCATr'
p4816
(lp4817
S'SCO7519'
p4818
asS'EX_no3_LPAREN_e_RPAREN_'
p4819
(lp4820
g6
asS'3OARi100'
p4821
(lp4822
S'SCO1815'
p4823
aS'SCO1345'
p4824
aS'SCO1346'
p4825
aS'SCO4501'
p4826
aS'SCO1831'
p4827
aS'SCO4681'
p4828
aS'SCO0330'
p4829
asS'MCOATA'
p4830
(lp4831
(lp4832
S'SCO2387'
p4833
aS'SCO2389'
p4834
aaS'SCO0549'
p4835
aS'SCO1267'
p4836
aS'SCO1272'
p4837
asS'PGSAi170'
p4838
(lp4839
S'SCO5753'
p4840
asS'SUCD3'
p4841
(lp4842
S'SCO4856'
p4843
aS'SCO5107'
p4844
a(lp4845
S'SCO4855'
p4846
aS'SCO7109'
p4847
aa(lp4848
S'SCO4857'
p4849
aS'SCO4858'
p4850
aS'SCO5106'
p4851
aasS'DASYNai150'
p4852
(lp4853
S'SCO5628'
p4854
asS'ACM6PH'
p4855
(lp4856
S'SCO4307'
p4857
asS'TAGS170'
p4858
(lp4859
g6
asS'PMDPHT'
p4860
(lp4861
g6
asS'RNDR4'
p4862
(lp4863
(lp4864
S'SCO5225'
p4865
aS'SCO5226'
p4866
aa(lp4867
S'SCO0885'
p4868
aS'SCO5805'
p4869
aaS'SCO3889'
p4870
aS'SCO5419'
p4871
aS'SCO5438'
p4872
asS'RNDR3'
p4873
(lp4874
(lp4875
S'SCO5225'
p4876
aS'SCO5226'
p4877
aa(lp4878
S'SCO0885'
p4879
aS'SCO5805'
p4880
aaS'SCO3889'
p4881
aS'SCO5419'
p4882
aS'SCO5438'
p4883
asS'GLU5K'
p4884
(lp4885
S'SCO2587'
p4886
asS'GDPTPDP'
p4887
(lp4888
S'SCO1513'
p4889
aS'SCO5794'
p4890
asS'GLYCK2'
p4891
(lp4892
S'SCO2145'
p4893
aS'SCO6466'
p4894
asS'G6PDA'
p4895
(lp4896
S'SCO5236'
p4897
asS'MPTG2'
p4898
(lp4899
S'SCO3847'
p4900
a(lp4901
S'SCO2709'
p4902
aS'SCO5301'
p4903
aaS'SCO3894'
p4904
asS'MDH'
p4905
(lp4906
S'SCO4827'
p4907
asS'CLPNSi170'
p4908
(lp4909
S'SCO7081'
p4910
asS'GUAt2'
p4911
(lp4912
S'SCO6212'
p4913
aS'SCO6214'
p4914
asS'REDS5y'
p4915
(lp4916
S'SCO1814'
p4917
asS'REDS5x'
p4918
(lp4919
S'SCO1814'
p4920
asS'MLTG5'
p4921
(lp4922
S'SCO1394'
p4923
aS'SCO2228'
p4924
aS'SCO3780'
p4925
aS'SCO7010'
p4926
asS'MLTG4'
p4927
(lp4928
S'SCO1394'
p4929
aS'SCO2228'
p4930
aS'SCO3780'
p4931
aS'SCO7010'
p4932
asS'3HADi90'
p4933
(lp4934
g6
asS'3HAD80'
p4935
(lp4936
g6
asS'MLTG3'
p4937
(lp4938
S'SCO1394'
p4939
aS'SCO2228'
p4940
aS'SCO3780'
p4941
aS'SCO7010'
p4942
asS'MLTG2'
p4943
(lp4944
S'SCO1394'
p4945
aS'SCO2228'
p4946
aS'SCO3780'
p4947
aS'SCO7010'
p4948
asS'EX_glyb_LPAREN_e_RPAREN_'
p4949
(lp4950
g6
asS'HXAND'
p4951
(lp4952
(lp4953
S'SCO4971'
p4954
aS'SCO4972'
p4955
aa(lp4956
S'SCO0689'
p4957
aS'SCO0690'
p4958
aS'SCO0691'
p4959
aa(lp4960
S'SCO1132'
p4961
aS'SCO1133'
p4962
aS'SCO1134'
p4963
aasS'PYDXNt'
p4964
(lp4965
g6
asS'CLPNSIIai150'
p4966
(lp4967
S'SCO1389'
p4968
asS'DTMPK'
p4969
(lp4970
g6
asS'LDH_D'
p4971
(lp4972
S'SCO2118'
p4973
aS'SCO3594'
p4974
asS'RBK'
p4975
(lp4976
S'SCO2748'
p4977
asS'CU1abc'
p4978
(lp4979
S'SCO1046'
p4980
aS'SCO2731'
p4981
asS'G3PD6'
p4982
(lp4983
S'SCO0670'
p4984
aS'SCO1661'
p4985
aS'SCO4774'
p4986
a(lp4987
S'SCO7005'
p4988
aS'SCO7006'
p4989
aasS'OMCDC'
p4990
(lp4991
S's0001'
p4992
asS'APHi170'
p4993
(lp4994
S'SCO5576'
p4995
asS'ACS'
p4996
(lp4997
S'SCO3563'
p4998
asS'ME1'
p4999
(lp5000
S'SCO2951'
p5001
asS'METOX2s'
p5002
(lp5003
S's0001'
p5004
asS'ME2'
p5005
(lp5006
S'SCO5261'
p5007
asS'PCPSredO'
p5008
(lp5009
S'SCO5883'
p5010
asS'EX_etha_LPAREN_e_RPAREN_'
p5011
(lp5012
g6
asS'EX_idon_DASH_L_LPAREN_e_RPAREN_'
p5013
(lp5014
g6
asS'EX_gua_LPAREN_e_RPAREN_'
p5015
(lp5016
g6
asS'EX_melib_LPAREN_e_RPAREN_'
p5017
(lp5018
g6
asS'PYDXPS'
p5019
(lp5020
(lp5021
S'SCO1522'
p5022
aS'SCO1523'
p5023
aasS'GGLGH'
p5024
(lp5025
S'SCO0274'
p5026
aS'SCO0541'
p5027
asS'EAR60x'
p5028
(lp5029
S'SCO1814'
p5030
asS'EAR60y'
p5031
(lp5032
S'SCO1814'
p5033
asS'ETHAt2'
p5034
(lp5035
g6
asS'DASYN120'
p5036
(lp5037
S'SCO5628'
p5038
asS'ALAALA'
p5039
(lp5040
S'SCO5560'
p5041
asS'NI2t3'
p5042
(lp5043
S'SCO0776'
p5044
aS'SCO1310'
p5045
aS'SCO2772'
p5046
aS'SCO6751'
p5047
asS'3HADi130'
p5048
(lp5049
g6
asS'MTHFD'
p5050
(lp5051
S'SCO4824'
p5052
asS'TRPS2'
p5053
(lp5054
(lp5055
S'SCO2036'
p5056
aS'SCO2037'
p5057
aasS'TRPS3'
p5058
(lp5059
(lp5060
S'SCO2036'
p5061
aS'SCO2037'
p5062
aasS'TRPS1'
p5063
(lp5064
(lp5065
S'SCO2036'
p5066
aS'SCO2037'
p5067
aasS'EPMGH'
p5068
(lp5069
S'SCO0274'
p5070
aS'SCO0541'
p5071
asS'DCTPD2'
p5072
(lp5073
S'SCO3678'
p5074
asS'EX_3ump_LPAREN_e_RPAREN_'
p5075
(lp5076
g6
asS'REDS8'
p5077
(lp5078
g6
asS'3HAD60'
p5079
(lp5080
g6
asS'REDS1'
p5081
(lp5082
(lp5083
S'SCO2387'
p5084
aS'SCO5887'
p5085
aasS'REDS3'
p5086
(lp5087
S'SCO1815'
p5088
aS'SCO1345'
p5089
aS'SCO1346'
p5090
aS'SCO4501'
p5091
aS'SCO1831'
p5092
aS'SCO4681'
p5093
aS'SCO0330'
p5094
asS'REDS2'
p5095
(lp5096
(lp5097
S'SCO5887'
p5098
aS'SCO5888'
p5099
aasS'REDS4'
p5100
(lp5101
g6
asS'REDS7'
p5102
(lp5103
S'SCO1815'
p5104
aS'SCO1345'
p5105
aS'SCO1346'
p5106
aS'SCO4501'
p5107
aS'SCO1831'
p5108
aS'SCO4681'
p5109
aS'SCO0330'
p5110
asS'REDS6'
p5111
(lp5112
S'SCO5886'
p5113
asS'3OAR150'
p5114
(lp5115
S'SCO1815'
p5116
aS'SCO1345'
p5117
aS'SCO1346'
p5118
aS'SCO4501'
p5119
aS'SCO1831'
p5120
aS'SCO4681'
p5121
aS'SCO0330'
p5122
asS'GK2i'
p5123
(lp5124
S'SCO1479'
p5125
asS'XANt2'
p5126
(lp5127
S'SCO6212'
p5128
aS'SCO6214'
p5129
asS'VALabc'
p5130
(lp5131
(lp5132
S'SCO0706'
p5133
aS'SCO0707'
p5134
aS'SCO0708'
p5135
aS'SCO0709'
p5136
aS'SCO0710'
p5137
aa(lp5138
S'SCO2008'
p5139
aS'SCO2009'
p5140
aS'SCO2010'
p5141
aS'SCO2011'
p5142
aS'SCO2012'
p5143
aa(lp5144
S'SCO7181'
p5145
aS'SCO7182'
p5146
aS'SCO7183'
p5147
aS'SCO7184'
p5148
aS'SCO7185'
p5149
aasS'EX_mn2_LPAREN_e_RPAREN_'
p5150
(lp5151
g6
asS'NADDP'
p5152
(lp5153
S'SCO5186'
p5154
asS'THRAi'
p5155
(lp5156
S'SCO1087'
p5157
aS'SCO4837'
p5158
aS'SCO5470'
p5159
aS'SCO5364'
p5160
asS'GGTT'
p5161
(lp5162
S'SCO4583'
p5163
asS'AOBUTDs'
p5164
(lp5165
S's0001'
p5166
asS'EX_dgmp_LPAREN_e_RPAREN_'
p5167
(lp5168
g6
asS'EAR181y'
p5169
(lp5170
S'SCO1814'
p5171
asS'3HADai150'
p5172
(lp5173
g6
asS'BHBt'
p5174
(lp5175
g6
asS'GND2'
p5176
(lp5177
S'SCO0975'
p5178
aS'SCO3877'
p5179
aS'SCO6658'
p5180
asS'ADCL'
p5181
(lp5182
g6
asS'3OASi110'
p5183
(lp5184
S'SCO0548'
p5185
aS'SCO2390'
p5186
aS'SCO1266'
p5187
asS'DPCOAK'
p5188
(lp5189
S'SCO1996'
p5190
asS'HSDy'
p5191
(lp5192
S'SCO0420'
p5193
aS'SCO5354'
p5194
asS'XYLK2'
p5195
(lp5196
g6
asS'EX_lyx_DASH_L_LPAREN_e_RPAREN_'
p5197
(lp5198
g6
asS'EX_co2_LPAREN_e_RPAREN_'
p5199
(lp5200
g6
asS'GLYAT'
p5201
(lp5202
S'SCO6800'
p5203
asS'EX_26dap_DASH_M_LPAREN_e_RPAREN_'
p5204
(lp5205
g6
asS'EX_malt_LPAREN_e_RPAREN_'
p5206
(lp5207
g6
asS'3OASi60'
p5208
(lp5209
S'SCO0548'
p5210
aS'SCO2390'
p5211
aS'SCO1266'
p5212
asS'TYRt2r'
p5213
(lp5214
S'SCO2914'
p5215
asS'FRTT'
p5216
(lp5217
S'SCO0185'
p5218
aS'SCO0565'
p5219
aS'SCO5250'
p5220
aS'SCO6763'
p5221
asS'ASPt2'
p5222
(lp5223
S'SCO4498'
p5224
asS'EX_g3pi_LPAREN_e_RPAREN_'
p5225
(lp5226
g6
asS'UAMAGS'
p5227
(lp5228
S'SCO2086'
p5229
asS'EX_pro_DASH_L_LPAREN_e_RPAREN_'
p5230
(lp5231
g6
asS'EX_malthp_LPAREN_e_RPAREN_'
p5232
(lp5233
g6
asS'DHPS2'
p5234
(lp5235
S'SCO3398'
p5236
aS'SCO5141'
p5237
asS'PSDi170'
p5238
(lp5239
S'SCO6468'
p5240
asS'ACACT4r'
p5241
(lp5242
S'SCO6788'
p5243
aS'SCO1324'
p5244
aS'SCO4502'
p5245
aS'SCO6027'
p5246
asS'3OAS150'
p5247
(lp5248
S'SCO0548'
p5249
aS'SCO2390'
p5250
aS'SCO1266'
p5251
asS'TRPO2'
p5252
(lp5253
S'SCO3646'
p5254
asS'TMDK1'
p5255
(lp5256
S'SCO5845'
p5257
asS'METSOXR1'
p5258
(lp5259
(lp5260
S'SCO0885'
p5261
aS'SCO4956'
p5262
aaS'SCO3889'
p5263
aS'SCO5419'
p5264
aS'SCO5438'
p5265
asS'SBTabc'
p5266
(lp5267
(lp5268
S'SCO1898'
p5269
aS'SCO1899'
p5270
aS'SCO1900'
p5271
aS'SCO4240'
p5272
aasS'G1PACT'
p5273
(lp5274
S'SCO3122'
p5275
asS'REDS37'
p5276
(lp5277
S'SCO5896'
p5278
asS'FACOAE80'
p5279
(lp5280
S'SCO1153'
p5281
aS'SCO2773'
p5282
asS'REDS36'
p5283
(lp5284
g6
asS'PCOATA'
p5285
(lp5286
S'SCO1271'
p5287
aS'SCO2388'
p5288
a(lp5289
S'SCO2389'
p5290
aS'SCO6564'
p5291
aaS'SCO0549'
p5292
aS'SCO1267'
p5293
aS'SCO1272'
p5294
asS'TRE6PP'
p5295
(lp5296
S'SCO4288'
p5297
asS'TRE6PS'
p5298
(lp5299
S'SCO4290'
p5300
asS'THDPS'
p5301
(lp5302
S'SCO1916'
p5303
asS'PPNCL2'
p5304
(lp5305
S'SCO1477'
p5306
asS'PINOSi140'
p5307
(lp5308
S'SCO1527'
p5309
asS'EX_gal_LPAREN_e_RPAREN_'
p5310
(lp5311
g6
asS'DHPPDA2'
p5312
(lp5313
S'SCO2688'
p5314
asS'PAPAi170'
p5315
(lp5316
g6
asS'GUACYC'
p5317
(lp5318
S'SCO4928'
p5319
asS'3NTD4e'
p5320
(lp5321
S'SCO2015'
p5322
asS'4HTHRS'
p5323
(lp5324
S'SCO4293'
p5325
aS'SCO5355'
p5326
asS'UPPDC1'
p5327
(lp5328
S'SCO6031'
p5329
asS'MMSAD4'
p5330
(lp5331
S'SCO2726'
p5332
asS'FADRx2'
p5333
(lp5334
S'SCO6102'
p5335
asS'EX_thr_DASH_L_LPAREN_e_RPAREN_'
p5336
(lp5337
g6
asS'DCYTt2'
p5338
(lp5339
g6
asS'AHMMPS'
p5340
(lp5341
S'SCO3928'
p5342
asS'SPMDabc'
p5343
(lp5344
(lp5345
S'SCO5658'
p5346
aS'SCO5667'
p5347
aS'SCO5668'
p5348
aS'SCO5669'
p5349
aS'SCO5670'
p5350
aasS'LIPOCT'
p5351
(lp5352
S'SCO2193'
p5353
asS'3OARi170'
p5354
(lp5355
S'SCO1815'
p5356
aS'SCO1345'
p5357
aS'SCO1346'
p5358
aS'SCO4501'
p5359
aS'SCO1831'
p5360
aS'SCO4681'
p5361
aS'SCO0330'
p5362
asS'PGSAi160'
p5363
(lp5364
S'SCO5753'
p5365
asS'VANK'
p5366
(lp5367
g6
asS'MELTGH'
p5368
(lp5369
S'SCO0274'
p5370
aS'SCO0541'
p5371
asS'DASYNi160'
p5372
(lp5373
S'SCO5628'
p5374
asS'EAR80x'
p5375
(lp5376
S'SCO1814'
p5377
asS'OCTTT'
p5378
(lp5379
S'SCO4583'
p5380
asS'SULabc'
p5381
(lp5382
(lp5383
S'SCO3704'
p5384
aS'SCO3705'
p5385
aS'SCO3706'
p5386
aasS'3OAS50'
p5387
(lp5388
S'SCO0548'
p5389
aS'SCO2390'
p5390
aS'SCO1266'
p5391
asS'GPDDA3e'
p5392
(lp5393
S'SCO1565'
p5394
aS'SCO1968'
p5395
aS'SCO7550'
p5396
asS'PGSAai170'
p5397
(lp5398
S'SCO5753'
p5399
asS'ETHAAL'
p5400
(lp5401
g6
asS'PMANM'
p5402
(lp5403
S'SCO3028'
p5404
aS'SCO4916'
p5405
aS'SCO1388'
p5406
asS'3HADi80'
p5407
(lp5408
g6
asS'3HAD90'
p5409
(lp5410
g6
asS'CDAS7'
p5411
(lp5412
S'SCO1815'
p5413
aS'SCO1345'
p5414
aS'SCO1346'
p5415
aS'SCO4501'
p5416
aS'SCO1831'
p5417
aS'SCO4681'
p5418
aS'SCO0330'
p5419
asS'LYSt2'
p5420
(lp5421
S'SCO2914'
p5422
asS'EX_gly_LPAREN_e_RPAREN_'
p5423
(lp5424
g6
asS'SHK3Dr'
p5425
(lp5426
S'SCO1498'
p5427
asS'TYRTA'
p5428
(lp5429
S'SCO1859'
p5430
aS'SCO2053'
p5431
aS'SCO3944'
p5432
aS'SCO4645'
p5433
aS'SCO3658'
p5434
asS'ASPK'
p5435
(lp5436
S'SCO3615'
p5437
asS'EX_5dglcn_LPAREN_e_RPAREN_'
p5438
(lp5439
g6
asS'PTAr'
p5440
(lp5441
S'SCO5425'
p5442
asS'RBFSa'
p5443
(lp5444
S'SCO1440'
p5445
asS'DHFS'
p5446
(lp5447
S'SCO2614'
p5448
asS'NTD2e'
p5449
(lp5450
S'SCO4152'
p5451
asS'EX_dcmp_LPAREN_e_RPAREN_'
p5452
(lp5453
g6
asS'CYSTRS'
p5454
(lp5455
S'SCO4235'
p5456
asS'DHNANT4'
p5457
(lp5458
g6
asS'GTPCII2'
p5459
(lp5460
S'SCO1441'
p5461
aS'SCO2687'
p5462
asS'RIBabc'
p5463
(lp5464
(lp5465
S'SCO2746'
p5466
aS'SCO2747'
p5467
aS'SCO2749'
p5468
aa(lp5469
S'SCO6257'
p5470
aS'SCO6258'
p5471
aS'SCO6259'
p5472
aasS'ALCD2y'
p5473
(lp5474
S'SCO4945'
p5475
aS'SCO4271'
p5476
asS'ABUTt2'
p5477
(lp5478
S'SCO2628'
p5479
aS'SCO2631'
p5480
asS'ADK3i'
p5481
(lp5482
S'SCO4723'
p5483
asS'GLNabc'
p5484
(lp5485
(lp5486
S'SCO5258'
p5487
aS'SCO5259'
p5488
aS'SCO5260'
p5489
aasS'EX_for_LPAREN_e_RPAREN_'
p5490
(lp5491
g6
asS'DURIt2'
p5492
(lp5493
g6
asS'HSTPT'
p5494
(lp5495
S'SCO1859'
p5496
aS'SCO2053'
p5497
aS'SCO3944'
p5498
asS'TMDPP'
p5499
(lp5500
S'SCO4890'
p5501
asS'MHPGLUT'
p5502
(lp5503
S'SCO0985'
p5504
asS'PTA2'
p5505
(lp5506
S'SCO5425'
p5507
asS'MEPCT'
p5508
(lp5509
S'SCO4233'
p5510
asS'EX_ade_LPAREN_e_RPAREN_'
p5511
(lp5512
g6
asS'CHORM'
p5513
(lp5514
S'SCO2019'
p5515
aS'SCO1762'
p5516
asS'DHNPTE'
p5517
(lp5518
S'SCO3400'
p5519
asS'EAR180x'
p5520
(lp5521
S'SCO1814'
p5522
asS'EAR180y'
p5523
(lp5524
S'SCO1814'
p5525
asS'EX_glcn_LPAREN_e_RPAREN_'
p5526
(lp5527
g6
asS'EX_h2s_LPAREN_e_RPAREN_'
p5528
(lp5529
g6
asS'EX_csn_LPAREN_e_RPAREN_'
p5530
(lp5531
g6
asS'VALDxi'
p5532
(lp5533
S'SCO4089'
p5534
asS'ADPRDP'
p5535
(lp5536
S'SCO1775'
p5537
asS'3HAD70'
p5538
(lp5539
g6
asS'APHi160'
p5540
(lp5541
S'SCO5576'
p5542
asS'ACOATA'
p5543
(lp5544
S'SCO1271'
p5545
aS'SCO2388'
p5546
a(lp5547
S'SCO2389'
p5548
aS'SCO6564'
p5549
aaS'SCO0549'
p5550
aS'SCO1267'
p5551
aS'SCO1272'
p5552
asS'SUCOAS'
p5553
(lp5554
(lp5555
S'SCO4808'
p5556
aS'SCO4809'
p5557
aa(lp5558
S'SCO6585'
p5559
aS'SCO6586'
p5560
aasS'CHORS'
p5561
(lp5562
S'SCO1496'
p5563
asS'SHCHCC'
p5564
(lp5565
S'SCO1858'
p5566
asS'EX_maltttr_LPAREN_e_RPAREN_'
p5567
(lp5568
g6
asS'CPC4MT'
p5569
(lp5570
S'SCO1855'
p5571
asS'EAR50y'
p5572
(lp5573
S'SCO1814'
p5574
asS'EAR50x'
p5575
(lp5576
S'SCO1814'
p5577
asS'EX_dump_LPAREN_e_RPAREN_'
p5578
(lp5579
g6
asS'ORPT'
p5580
(lp5581
S'SCO3650'
p5582
asS'CYSt'
p5583
(lp5584
S'SCO2756'
p5585
asS'ATPPRT'
p5586
(lp5587
S'SCO1438'
p5588
asS'EX_o2_LPAREN_e_RPAREN_'
p5589
(lp5590
g6
asS'TRPt2r'
p5591
(lp5592
S'SCO2914'
p5593
asS'PRAMPC'
p5594
(lp5595
S'SCO2044'
p5596
asS'REDS17x'
p5597
(lp5598
S'SCO1814'
p5599
asS'CYSS'
p5600
(lp5601
S'SCO0992'
p5602
aS'SCO1028'
p5603
aS'SCO2910'
p5604
asS'3OASi120'
p5605
(lp5606
S'SCO0548'
p5607
aS'SCO2390'
p5608
aS'SCO1266'
p5609
asS'EX_acser_LPAREN_e_RPAREN_'
p5610
(lp5611
g6
asS'ANHMK'
p5612
(lp5613
S'SCO7595'
p5614
asS'FEOXAMBUt'
p5615
(lp5616
g6
asS'GLYALDDr'
p5617
(lp5618
S'SCO1174'
p5619
aS'SCO1706'
p5620
aS'SCO3420'
p5621
aS'SCO4913'
p5622
aS'SCO5679'
p5623
asS'UGLYCH'
p5624
(lp5625
g6
asS'ARAI'
p5626
(lp5627
g6
asS'PROt4'
p5628
(lp5629
S'SCO5229'
p5630
asS'DM_ECTOINE'
p5631
(lp5632
g6
asS'MECDPS'
p5633
(lp5634
S'SCO4234'
p5635
asS'GAL6PI'
p5636
(lp5637
S'SCO5849'
p5638
asS'AACOATi'
p5639
(lp5640
S'SCO1393'
p5641
asS'XYLTO'
p5642
(lp5643
S'SCO6147'
p5644
asS'3OAR161'
p5645
(lp5646
S'SCO1815'
p5647
aS'SCO1345'
p5648
aS'SCO1346'
p5649
aS'SCO4501'
p5650
aS'SCO1831'
p5651
aS'SCO4681'
p5652
aS'SCO0330'
p5653
asS'3OAR160'
p5654
(lp5655
S'SCO1815'
p5656
aS'SCO1345'
p5657
aS'SCO1346'
p5658
aS'SCO4501'
p5659
aS'SCO1831'
p5660
aS'SCO4681'
p5661
aS'SCO0330'
p5662
asS'IMPD'
p5663
(lp5664
(lp5665
S'SCO4770'
p5666
aS'SCO4771'
p5667
aaS'SCO1461'
p5668
asS'CLPNSII120'
p5669
(lp5670
S'SCO1389'
p5671
asS'HXPRT'
p5672
(lp5673
S'SCO3405'
p5674
asS'IBCOATA'
p5675
(lp5676
S'SCO1271'
p5677
aS'SCO2388'
p5678
a(lp5679
S'SCO2389'
p5680
aS'SCO6564'
p5681
aaS'SCO0549'
p5682
aS'SCO1267'
p5683
aS'SCO1272'
p5684
asS'DURIPP'
p5685
(lp5686
S'SCO4890'
p5687
asS'APCS'
p5688
(lp5689
S'SCO3655'
p5690
aS'SCO2455'
p5691
asS'EARi180x'
p5692
(lp5693
S'SCO1814'
p5694
asS'EARi180y'
p5695
(lp5696
S'SCO1814'
p5697
asS'PSDi160'
p5698
(lp5699
S'SCO6468'
p5700
asS'EX_imp_LPAREN_e_RPAREN_'
p5701
(lp5702
g6
asS'DAPDC'
p5703
(lp5704
S'SCO5353'
p5705
aS'SCO6438'
p5706
asS'3OAS140'
p5707
(lp5708
S'SCO0548'
p5709
aS'SCO2390'
p5710
aS'SCO1266'
p5711
asS'3OAS141'
p5712
(lp5713
S'SCO0548'
p5714
aS'SCO2390'
p5715
aS'SCO1266'
p5716
asS'SPMS'
p5717
(lp5718
S'SCO3655'
p5719
aS'SCO2455'
p5720
asS'MELIBt2'
p5721
(lp5722
g6
asS'EX_fald_LPAREN_e_RPAREN_'
p5723
(lp5724
g6
asS'XAND'
p5725
(lp5726
(lp5727
S'SCO4971'
p5728
aS'SCO4972'
p5729
aa(lp5730
S'SCO0690'
p5731
aS'SCO0691'
p5732
aasS'ACTS12'
p5733
(lp5734
S'SCO5091'
p5735
asS'ACTS13'
p5736
(lp5737
S'SCO5072'
p5738
asS'ACTS10'
p5739
(lp5740
S'SCO5086'
p5741
asS'ACTS11'
p5742
(lp5743
S'SCO5090'
p5744
asS'ACTS16'
p5745
(lp5746
(lp5747
S'SCO5080'
p5748
aS'SCO5092'
p5749
aaS'SCO5081'
p5750
asS'ACTS17'
p5751
(lp5752
(lp5753
S'SCO5080'
p5754
aS'SCO5092'
p5755
aasS'ACTS14'
p5756
(lp5757
S'SCO5071'
p5758
aS'SCO5072'
p5759
aS'SCO5074'
p5760
asS'ACTS15'
p5761
(lp5762
S'SCO5023'
p5763
aS'SCO5075'
p5764
asS'NTP3'
p5765
(lp5766
S'SCO6149'
p5767
asS'ACTS18'
p5768
(lp5769
g6
asS'ACTS19'
p5770
(lp5771
g6
asS'EX_urea_LPAREN_e_RPAREN_'
p5772
(lp5773
g6
asS'EX_glyc_DASH_R_LPAREN_e_RPAREN_'
p5774
(lp5775
g6
asS'FUM'
p5776
(lp5777
S'SCO5042'
p5778
aS'SCO5044'
p5779
asS'DAPE'
p5780
(lp5781
S'SCO5793'
p5782
asS'PKT'
p5783
(lp5784
S'SCO0617'
p5785
asS'ALDD19x'
p5786
(lp5787
S'SCO1612'
p5788
asS'ACt4'
p5789
(lp5790
S'SCO1822'
p5791
asS'FACOAL100'
p5792
(lp5793
S'SCO6196'
p5794
aS'SCO6195'
p5795
aS'SCO2131'
p5796
aS'SCO2444'
p5797
aS'SCO2561'
p5798
aS'SCO2720'
p5799
aS'SCO3436'
p5800
aS'SCO4006'
p5801
aS'SCO5983'
p5802
aS'SCO6552'
p5803
aS'SCO6968'
p5804
aS'SCO7244'
p5805
asS'FMNAT'
p5806
(lp5807
S'SCO5711'
p5808
asS'ACPSact'
p5809
(lp5810
S'SCO4744'
p5811
asS'EX_cmp_LPAREN_e_RPAREN_'
p5812
(lp5813
g6
asS'EX_uri_LPAREN_e_RPAREN_'
p5814
(lp5815
g6
asS'PAPAi140'
p5816
(lp5817
g6
asS'EX_dcyt_LPAREN_e_RPAREN_'
p5818
(lp5819
g6
asS'FORti'
p5820
(lp5821
S's0001'
p5822
asS'IPPMIa'
p5823
(lp5824
(lp5825
S'SCO5553'
p5826
aS'SCO5554'
p5827
aasS'PC17M'
p5828
(lp5829
S'SCO1857'
p5830
asS'EARi80x'
p5831
(lp5832
S'SCO1814'
p5833
asS'ACACT5r'
p5834
(lp5835
S'SCO6788'
p5836
aS'SCO1324'
p5837
aS'SCO4502'
p5838
aS'SCO6027'
p5839
asS'EX_pnto_DASH_R_LPAREN_e_RPAREN_'
p5840
(lp5841
g6
asS'FRD8'
p5842
(lp5843
(lp5844
S'SCO0922'
p5845
aS'SCO0923'
p5846
aS'SCO0924'
p5847
aasS'3HAD181'
p5848
(lp5849
g6
asS'EX_pyr_LPAREN_e_RPAREN_'
p5850
(lp5851
g6
asS'G3PCT'
p5852
(lp5853
g6
asS'EX_mnl_LPAREN_e_RPAREN_'
p5854
(lp5855
g6
asS'PGSAi150'
p5856
(lp5857
S'SCO5753'
p5858
asS'3OARi160'
p5859
(lp5860
S'SCO1815'
p5861
aS'SCO1345'
p5862
aS'SCO1346'
p5863
aS'SCO4501'
p5864
aS'SCO1831'
p5865
aS'SCO4681'
p5866
aS'SCO0330'
p5867
asS'HIBD'
p5868
(lp5869
S'SCO0907'
p5870
asS'SERt2r'
p5871
(lp5872
g6
asS'PGSA120'
p5873
(lp5874
S'SCO5753'
p5875
asS'T2DECAI'
p5876
(lp5877
g6
asS'ASR'
p5878
(lp5879
S'SCO2206'
p5880
aS'SCO6835'
p5881
asS'ALLTAH'
p5882
(lp5883
S'SCO6248'
p5884
asS'CLPNS120'
p5885
(lp5886
S'SCO7081'
p5887
asS'EX_ferricoelichelin_LPAREN_e_RPAREN_'
p5888
(lp5889
g6
asS'DGI'
p5890
(lp5891
S'SCO6976'
p5892
asS'ALCD19'
p5893
(lp5894
S'SCO0199'
p5895
aS'SCO0259'
p5896
aS'SCO5262'
p5897
aS'SCO7362'
p5898
asS'PC6YM'
p5899
(lp5900
S'SCO1555'
p5901
aS'SCO1856'
p5902
asS'EX_glyc3p_LPAREN_e_RPAREN_'
p5903
(lp5904
g6
asS'THD2'
p5905
(lp5906
(lp5907
S'SCO7622'
p5908
aS'SCO7623'
p5909
aasS'TDPDRE'
p5910
(lp5911
S'SCO0400'
p5912
asS'3OARai130'
p5913
(lp5914
S'SCO1815'
p5915
aS'SCO1345'
p5916
aS'SCO1346'
p5917
aS'SCO4501'
p5918
aS'SCO1831'
p5919
aS'SCO4681'
p5920
aS'SCO0330'
p5921
asS'3NTD7e'
p5922
(lp5923
S'SCO2015'
p5924
asS'TDPDRR'
p5925
(lp5926
S'SCO7194'
p5927
asS'THMabc'
p5928
(lp5929
(lp5930
S'SCO5646'
p5931
aS'SCO5647'
p5932
aS'SCO5648'
p5933
aasS'APTNAT'
p5934
(lp5935
g6
asS'PSSA120'
p5936
(lp5937
S'SCO6467'
p5938
asS'CLPNSIIai170'
p5939
(lp5940
S'SCO1389'
p5941
asS'PGAMT'
p5942
(lp5943
S'SCO4736'
p5944
asS'GLCt2'
p5945
(lp5946
S'SCO5578'
p5947
aS'SCO7153'
p5948
asS'ACPPAT181'
p5949
(lp5950
g6
asS'ACPPAT180'
p5951
(lp5952
g6
asS'EX_no2_LPAREN_e_RPAREN_'
p5953
(lp5954
g6
asS'TAGSi180'
p5955
(lp5956
g6
asS'EX_xmp_LPAREN_e_RPAREN_'
p5957
(lp5958
g6
asS'CYTD'
p5959
(lp5960
S'SCO4889'
p5961
aS'SCO5680'
p5962
asS'ASNTRS'
p5963
(lp5964
g6
asS'EX_cu2_LPAREN_e_RPAREN_'
p5965
(lp5966
g6
asS'NDPK8'
p5967
(lp5968
S'SCO2612'
p5969
asS'NDPK9'
p5970
(lp5971
S'SCO2612'
p5972
asS'NDPK2'
p5973
(lp5974
S'SCO2612'
p5975
asS'NDPK3'
p5976
(lp5977
S'SCO2612'
p5978
asS'NDPK1'
p5979
(lp5980
S'SCO2612'
p5981
asS'TRDR'
p5982
(lp5983
S'SCO3890'
p5984
aS'SCO6834'
p5985
a(lp5986
S'SCO0885'
p5987
aS'SCO7298'
p5988
aaS'SCO3889'
p5989
aS'SCO5419'
p5990
aS'SCO5438'
p5991
asS'PHYCBOXL'
p5992
(lp5993
g6
asS'NDPK4'
p5994
(lp5995
S'SCO2612'
p5996
asS'NDPK5'
p5997
(lp5998
S'SCO2612'
p5999
asS'2OXOADOX'
p6000
(lp6001
(lp6002
S'SCO2181'
p6003
aS'SCO5281'
p6004
aa(lp6005
S'SCO0884'
p6006
aS'SCO7123'
p6007
aaS'SCO2180'
p6008
aS'SCO4919'
p6009
asS'SO4t2'
p6010
(lp6011
S'SCO3276'
p6012
asS'3OAR50'
p6013
(lp6014
S'SCO1815'
p6015
aS'SCO1345'
p6016
aS'SCO1346'
p6017
aS'SCO4501'
p6018
aS'SCO1831'
p6019
aS'SCO4681'
p6020
aS'SCO0330'
p6021
asS'TMDSf'
p6022
(lp6023
S'SCO5743'
p6024
asS'SPMDt3'
p6025
(lp6026
S'SCO1918'
p6027
asS'ALLTAMH'
p6028
(lp6029
S'SCO3072'
p6030
asS'SHCHD2'
p6031
(lp6032
S'SCO1553'
p6033
asS'NTD3e'
p6034
(lp6035
S'SCO4152'
p6036
asS'BWCOS'
p6037
(lp6038
S'SCO3181'
p6039
aS'SCO3827'
p6040
asS'LACZ'
p6041
(lp6042
S'SCO0766'
p6043
aS'SCO3479'
p6044
aS'SCO5689'
p6045
aS'SCO6347'
p6046
aS'SCO6457'
p6047
aS'SCO7407'
p6048
asS'IPDPS'
p6049
(lp6050
S'SCO5058'
p6051
asS'LIPAMPL'
p6052
(lp6053
S'SCO6423'
p6054
asS'ACGAMK'
p6055
(lp6056
S'SCO4285'
p6057
asS'EX_met_DASH_L_LPAREN_e_RPAREN_'
p6058
(lp6059
g6
asS'GAPD'
p6060
(lp6061
S'SCO1947'
p6062
aS'SCO7040'
p6063
aS'SCO7511'
p6064
asS'3OASi130'
p6065
(lp6066
S'SCO0548'
p6067
aS'SCO2390'
p6068
aS'SCO1266'
p6069
asS'CYO2a'
p6070
(lp6071
(lp6072
S'SCO2149'
p6073
aS'SCO2150'
p6074
aS'SCO7236'
p6075
aaS'SCO2148'
p6076
aS'SCO7120'
p6077
asS'CYO2b'
p6078
(lp6079
(lp6080
S'SCO1934'
p6081
aS'SCO2156'
p6082
aS'SCO7234'
p6083
aa(lp6084
S'SCO1930'
p6085
aS'SCO2151'
p6086
aS'SCO2155'
p6087
aasS'EARi100y'
p6088
(lp6089
S'SCO1814'
p6090
asS'EAR40x'
p6091
(lp6092
S'SCO1814'
p6093
asS'EAR40y'
p6094
(lp6095
S'SCO1814'
p6096
asS'EX_dtmp_LPAREN_e_RPAREN_'
p6097
(lp6098
g6
asS'XTSNt2r'
p6099
(lp6100
g6
asS'GLNLASE'
p6101
(lp6102
S'SCO0524'
p6103
asS'3OAR170'
p6104
(lp6105
S'SCO1815'
p6106
aS'SCO1345'
p6107
aS'SCO1346'
p6108
aS'SCO4501'
p6109
aS'SCO1831'
p6110
aS'SCO4681'
p6111
aS'SCO0330'
p6112
asS'THRD_L'
p6113
(lp6114
S'SCO0821'
p6115
aS'SCO4962'
p6116
asS'ASNt2r'
p6117
(lp6118
S'SCO6734'
p6119
asS'EX_23camp_LPAREN_e_RPAREN_'
p6120
(lp6121
g6
asS'CLPNSIIi160'
p6122
(lp6123
S'SCO1389'
p6124
asS'FDH'
p6125
(lp6126
S'SCO6561'
p6127
asS'23PDE2e'
p6128
(lp6129
S'SCO2015'
p6130
asS'AGM4PCP'
p6131
(lp6132
S'SCO6489'
p6133
asS'GALKr'
p6134
(lp6135
S'SCO3136'
p6136
asS'FANH'
p6137
(lp6138
S'SCO3644'
p6139
asS'MALT'
p6140
(lp6141
S'SCO1394'
p6142
aS'SCO2228'
p6143
aS'SCO3780'
p6144
aS'SCO7010'
p6145
asS'ACACT6r'
p6146
(lp6147
S'SCO6788'
p6148
aS'SCO1324'
p6149
aS'SCO4502'
p6150
aS'SCO6027'
p6151
asS'MALS'
p6152
(lp6153
S'SCO0983'
p6154
aS'SCO6243'
p6155
asS'PC'
p6156
(lp6157
S'SCO0546'
p6158
asS'3HADai130'
p6159
(lp6160
g6
asS'ADCPS2'
p6161
(lp6162
S'SCO1847'
p6163
asS'EX_lys_DASH_L_LPAREN_e_RPAREN_'
p6164
(lp6165
g6
asS'ADEt2r'
p6166
(lp6167
S'SCO6212'
p6168
aS'SCO6214'
p6169
aS'SCO4334'
p6170
aS'SCO6173'
p6171
asS'TAGO'
p6172
(lp6173
g6
asS'LYXt2'
p6174
(lp6175
g6
asS'PTRCTA'
p6176
(lp6177
S'SCO1284'
p6178
asS'EX_glc_LPAREN_e_RPAREN_'
p6179
(lp6180
g6
asS'N2Ot'
p6181
(lp6182
S's0001'
p6183
asS'ECOAH8'
p6184
(lp6185
S'SCO6732'
p6186
aS'SCO4384'
p6187
asS'ECOAH6'
p6188
(lp6189
S'SCO6732'
p6190
aS'SCO4384'
p6191
asS'ECOAH7'
p6192
(lp6193
S'SCO6732'
p6194
aS'SCO4384'
p6195
asS'ECOAH4'
p6196
(lp6197
S'SCO6732'
p6198
aS'SCO4384'
p6199
asS'ECOAH5'
p6200
(lp6201
S'SCO6732'
p6202
aS'SCO4384'
p6203
asS'ECOAH2'
p6204
(lp6205
S'SCO6732'
p6206
aS'SCO4384'
p6207
asS'ECOAH3'
p6208
(lp6209
S'SCO6732'
p6210
aS'SCO4384'
p6211
asS'ECOAH1'
p6212
(lp6213
S'SCO6732'
p6214
aS'SCO4384'
p6215
asS'RNDR4c'
p6216
(lp6217
(lp6218
S'SCO5225'
p6219
aS'SCO5226'
p6220
aaS'SCO5805'
p6221
asS'GRTT'
p6222
(lp6223
S'SCO0185'
p6224
aS'SCO0565'
p6225
aS'SCO5250'
p6226
aS'SCO6763'
p6227
asS'PAPAi150'
p6228
(lp6229
g6
asS'PNTK'
p6230
(lp6231
S'SCO3380'
p6232
aS'SCO4738'
p6233
asS'LIPOS'
p6234
(lp6235
S'SCO2194'
p6236
asS'PGSA140'
p6237
(lp6238
S'SCO5753'
p6239
asS'3OARi140'
p6240
(lp6241
S'SCO1815'
p6242
aS'SCO1345'
p6243
aS'SCO1346'
p6244
aS'SCO4501'
p6245
aS'SCO1831'
p6246
aS'SCO4681'
p6247
aS'SCO0330'
p6248
asS'ARGSL'
p6249
(lp6250
S'SCO1570'
p6251
asS'IMPC'
p6252
(lp6253
S'SCO4814'
p6254
asS'RAFGH'
p6255
(lp6256
S'SCO0274'
p6257
aS'SCO0541'
p6258
asS'EX_fum_LPAREN_e_RPAREN_'
p6259
(lp6260
g6
asS'BALAt2'
p6261
(lp6262
S'SCO2914'
p6263
asS'UAMAS'
p6264
(lp6265
S'SCO6060'
p6266
asS'ARGSS'
p6267
(lp6268
S'SCO7036'
p6269
asS'PHCHGS'
p6270
(lp6271
S's0001'
p6272
asS'3OARi150'
p6273
(lp6274
S'SCO1815'
p6275
aS'SCO1345'
p6276
aS'SCO1346'
p6277
aS'SCO4501'
p6278
aS'SCO1831'
p6279
aS'SCO4681'
p6280
aS'SCO0330'
p6281
asS'XYLK'
p6282
(lp6283
S'SCO1170'
p6284
aS'SCO2462'
p6285
asS'OIVD3'
p6286
(lp6287
(lp6288
S'SCO3816'
p6289
aS'SCO3817'
p6290
aa(lp6291
S'SCO3815'
p6292
aS'SCO3830'
p6293
aS'SCO3831'
p6294
aa(lp6295
S'SCO0884'
p6296
aS'SCO3829'
p6297
aaS'SCO2180'
p6298
aS'SCO4919'
p6299
asS'OIVD2'
p6300
(lp6301
(lp6302
S'SCO3816'
p6303
aS'SCO3817'
p6304
aa(lp6305
S'SCO3815'
p6306
aS'SCO3830'
p6307
aS'SCO3831'
p6308
aa(lp6309
S'SCO0884'
p6310
aS'SCO3829'
p6311
aaS'SCO2180'
p6312
aS'SCO4919'
p6313
asS'OIVD1'
p6314
(lp6315
(lp6316
S'SCO3816'
p6317
aS'SCO3817'
p6318
aa(lp6319
S'SCO3815'
p6320
aS'SCO3830'
p6321
aS'SCO3831'
p6322
aa(lp6323
S'SCO0884'
p6324
aS'SCO3829'
p6325
aaS'SCO2180'
p6326
aS'SCO4919'
p6327
asS'PGSAi140'
p6328
(lp6329
S'SCO5753'
p6330
asS'APG3PATi160'
p6331
(lp6332
g6
asS'3HAD150'
p6333
(lp6334
g6
asS'UGMDDS'
p6335
(lp6336
S'SCO2088'
p6337
asS'XYLTabc'
p6338
(lp6339
(lp6340
S'SCO1898'
p6341
aS'SCO1899'
p6342
aS'SCO1900'
p6343
aS'SCO4240'
p6344
aasS'GTPHs'
p6345
(lp6346
S's0001'
p6347
asS'ASNN'
p6348
(lp6349
g6
asS'CDAS5x'
p6350
(lp6351
S'SCO1814'
p6352
asS'CDAS5y'
p6353
(lp6354
S'SCO1814'
p6355
asS'PGSAai150'
p6356
(lp6357
S'SCO5753'
p6358
asS'EARai110y'
p6359
(lp6360
S'SCO1814'
p6361
asS'EX_lcts_LPAREN_e_RPAREN_'
p6362
(lp6363
g6
asS'DM_RED'
p6364
(lp6365
g6
asS'APHai150'
p6366
(lp6367
S'SCO5576'
p6368
asS'GPDDA1e'
p6369
(lp6370
S'SCO1565'
p6371
aS'SCO1968'
p6372
aS'SCO7550'
p6373
asS'ACKr'
p6374
(lp6375
S'SCO5424'
p6376
asS'DHORTS'
p6377
(lp6378
S'SCO1486'
p6379
asS'EX_orn_LPAREN_e_RPAREN_'
p6380
(lp6381
g6
asS'EX_amp_LPAREN_e_RPAREN_'
p6382
(lp6383
g6
asS'PPC'
p6384
(lp6385
S'SCO3127'
p6386
asS'5DGLCNt2r'
p6387
(lp6388
S'SCO1680'
p6389
aS'SCO4991'
p6390
asS'OROTt2_2'
p6391
(lp6392
S'SCO5436'
p6393
asS'PRMICIi'
p6394
(lp6395
S'SCO2050'
p6396
asS'PPM'
p6397
(lp6398
S'SCO7443'
p6399
asS'EX_dgsn_LPAREN_e_RPAREN_'
p6400
(lp6401
g6
asS'ACPpdscda'
p6402
(lp6403
S'SCO0046'
p6404
asS'GPDDA4'
p6405
(lp6406
S'SCO1090'
p6407
aS'SCO1419'
p6408
aS'SCO3976'
p6409
aS'SCO5661'
p6410
asS'GPDDA5'
p6411
(lp6412
S'SCO1090'
p6413
aS'SCO1419'
p6414
aS'SCO3976'
p6415
aS'SCO5661'
p6416
asS'PRAGSr'
p6417
(lp6418
S'SCO4068'
p6419
asS'GPDDA1'
p6420
(lp6421
S'SCO1090'
p6422
aS'SCO1419'
p6423
aS'SCO3976'
p6424
aS'SCO5661'
p6425
asS'GPDDA2'
p6426
(lp6427
S'SCO1090'
p6428
aS'SCO1419'
p6429
aS'SCO3976'
p6430
aS'SCO5661'
p6431
asS'GPDDA3'
p6432
(lp6433
S'SCO1090'
p6434
aS'SCO1419'
p6435
aS'SCO3976'
p6436
aS'SCO5661'
p6437
asS'MTI'
p6438
(lp6439
S'SCO5442'
p6440
aS'SCO7334'
p6441
asS'ACPPATi170'
p6442
(lp6443
g6
asS'EX_ggl_LPAREN_e_RPAREN_'
p6444
(lp6445
g6
asS'SDPTA'
p6446
(lp6447
S'SCO1577'
p6448
asS'EX_ala_DASH_D_LPAREN_e_RPAREN_'
p6449
(lp6450
g6
asS'BPNT'
p6451
(lp6452
g6
asS'EX_maltpt_LPAREN_e_RPAREN_'
p6453
(lp6454
g6
asS'FMNRx'
p6455
(lp6456
S'SCO3295'
p6457
asS'CBLAT'
p6458
(lp6459
g6
asS'PROTRS'
p6460
(lp6461
S'SCO5699'
p6462
asS'GLYTRS'
p6463
(lp6464
S'SCO2504'
p6465
asS'MACACI'
p6466
(lp6467
g6
asS'CYSabc2'
p6468
(lp6469
S'SCO3947'
p6470
asS'IGAMD'
p6471
(lp6472
S'SCO5126'
p6473
aS'SCO4967'
p6474
asS'POX3'
p6475
(lp6476
S'SCO6155'
p6477
aS'SCO7412'
p6478
asS'3OAR40'
p6479
(lp6480
S'SCO1815'
p6481
aS'SCO1345'
p6482
aS'SCO1346'
p6483
aS'SCO4501'
p6484
aS'SCO1831'
p6485
aS'SCO4681'
p6486
aS'SCO0330'
p6487
asS'ARGabc'
p6488
(lp6489
(lp6490
S'SCO2828'
p6491
aS'SCO2829'
p6492
aS'SCO2830'
p6493
aS'SCO2831'
p6494
aasS'METabc'
p6495
(lp6496
(lp6497
S'SCO1557'
p6498
aS'SCO1558'
p6499
aS'SCO1559'
p6500
aasS'3HAD50'
p6501
(lp6502
g6
asS'3OARai90'
p6503
(lp6504
S'SCO1815'
p6505
aS'SCO1345'
p6506
aS'SCO1346'
p6507
aS'SCO4501'
p6508
aS'SCO1831'
p6509
aS'SCO4681'
p6510
aS'SCO0330'
p6511
asS'CLPNSi180'
p6512
(lp6513
S'SCO7081'
p6514
asS'INOSTt4'
p6515
(lp6516
S'SCO3139'
p6517
asS'NADS1'
p6518
(lp6519
S'SCO0506'
p6520
asS'NADS2'
p6521
(lp6522
S'SCO2238'
p6523
asS'GLCRt2r'
p6524
(lp6525
S'SCO2541'
p6526
asS'PPM2'
p6527
(lp6528
S'SCO7443'
p6529
asS'TREabc'
p6530
(lp6531
(lp6532
S'SCO1882'
p6533
aS'SCO1886'
p6534
aS'SCO1887'
p6535
aa(lp6536
S'SCO6601'
p6537
aS'SCO6602'
p6538
aS'SCO6603'
p6539
aasS'LEUTRS'
p6540
(lp6541
S'SCO2571'
p6542
asS'EX_asn_DASH_L_LPAREN_e_RPAREN_'
p6543
(lp6544
g6
asS'GLUR'
p6545
(lp6546
S'SCO1018'
p6547
asS'MTAN'
p6548
(lp6549
S'SCO5431'
p6550
asS'DATPHs'
p6551
(lp6552
S's0001'
p6553
asS'OXDHCOAT'
p6554
(lp6555
(lp6556
S'SCO5144'
p6557
aS'SCO6701'
p6558
aaS'SCO6967'
p6559
aS'SCO3079'
p6560
aS'SCO6731'
p6561
asS'METB1r'
p6562
(lp6563
S'SCO1294'
p6564
aS'SCO4958'
p6565
asS'EX_mg2_LPAREN_e_RPAREN_'
p6566
(lp6567
g6
asS'ARGD'
p6568
(lp6569
S'SCO0613'
p6570
aS'SCO5975'
p6571
asS'MALt3'
p6572
(lp6573
g6
asS'GK1i'
p6574
(lp6575
S'SCO1479'
p6576
asS'FEOXAMBexs'
p6577
(lp6578
S's0001'
p6579
asS'AGDC'
p6580
(lp6581
S'SCO4284'
p6582
asS'3OAR181'
p6583
(lp6584
S'SCO1815'
p6585
aS'SCO1345'
p6586
aS'SCO1346'
p6587
aS'SCO4501'
p6588
aS'SCO1831'
p6589
aS'SCO4681'
p6590
aS'SCO0330'
p6591
asS'3OAR180'
p6592
(lp6593
S'SCO1815'
p6594
aS'SCO1345'
p6595
aS'SCO1346'
p6596
aS'SCO4501'
p6597
aS'SCO1831'
p6598
aS'SCO4681'
p6599
aS'SCO0330'
p6600
asS'CLPNSIIi170'
p6601
(lp6602
S'SCO1389'
p6603
asS'SHKK'
p6604
(lp6605
S'SCO1495'
p6606
asS'BDH'
p6607
(lp6608
S'SCO1012'
p6609
asS'ASPCT'
p6610
(lp6611
S'SCO1487'
p6612
asS'3OAS160'
p6613
(lp6614
S'SCO0548'
p6615
aS'SCO2390'
p6616
aS'SCO1266'
p6617
asS'3OAS161'
p6618
(lp6619
S'SCO0548'
p6620
aS'SCO2390'
p6621
aS'SCO1266'
p6622
asS'MOBDabc'
p6623
(lp6624
(lp6625
S'SCO3704'
p6626
aS'SCO3705'
p6627
aS'SCO3706'
p6628
aasS'FACOAL80'
p6629
(lp6630
S'SCO6196'
p6631
aS'SCO6195'
p6632
aS'SCO2131'
p6633
aS'SCO2444'
p6634
aS'SCO2561'
p6635
aS'SCO2720'
p6636
aS'SCO3436'
p6637
aS'SCO4006'
p6638
aS'SCO5983'
p6639
aS'SCO6552'
p6640
aS'SCO6968'
p6641
aS'SCO7244'
p6642
asS'PSDi180'
p6643
(lp6644
S'SCO6468'
p6645
asS'ICYSDS'
p6646
(lp6647
S'SCO5486'
p6648
asS'34HPPOR'
p6649
(lp6650
S'SCO2927'
p6651
asS'REDS17y'
p6652
(lp6653
S'SCO1814'
p6654
asS'ACACT10r'
p6655
(lp6656
S'SCO6788'
p6657
aS'SCO1324'
p6658
aS'SCO4502'
p6659
aS'SCO6027'
p6660
asS'GERMD'
p6661
(lp6662
S'SCO7221'
p6663
asS'DRIBt'
p6664
(lp6665
g6
asS'AGPR'
p6666
(lp6667
S'SCO1580'
p6668
asS'GERMA'
p6669
(lp6670
S'SCO7221'
p6671
asS'GERMB'
p6672
(lp6673
S'SCO7221'
p6674
asS'GERMC'
p6675
(lp6676
S'SCO7221'
p6677
asS'NTRIR2x'
p6678
(lp6679
(lp6680
S'SCO2487'
p6681
aS'SCO2488'
p6682
aasS'PSD160'
p6683
(lp6684
S'SCO6468'
p6685
asS'PSD161'
p6686
(lp6687
S'SCO6468'
p6688
asS'MALTabc'
p6689
(lp6690
(lp6691
S'SCO2229'
p6692
aS'SCO2230'
p6693
aS'SCO2231'
p6694
aS'SCO4240'
p6695
aasS'ALAR'
p6696
(lp6697
S'SCO4745'
p6698
asS'DHDGLCD'
p6699
(lp6700
S'SCO1895'
p6701
aS'SCO2543'
p6702
asS'EX_tyr_DASH_L_LPAREN_e_RPAREN_'
p6703
(lp6704
g6
asS'GLUDC'
p6705
(lp6706
S'SCO3416'
p6707
asS'SBTO'
p6708
(lp6709
S'SCO6147'
p6710
asS'ASPt2_2'
p6711
(lp6712
S'SCO5436'
p6713
asS'MNLabc'
p6714
(lp6715
(lp6716
S'SCO1898'
p6717
aS'SCO1899'
p6718
aS'SCO1900'
p6719
aS'SCO4240'
p6720
aasS'VNTDM'
p6721
(lp6722
S'SCO6680'
p6723
asS'MI1PS'
p6724
(lp6725
S'SCO3243'
p6726
aS'SCO3899'
p6727
aS'SCO6573'
p6728
asS'MI1PP'
p6729
(lp6730
S'SCO5860'
p6731
asS'2MBCOATA'
p6732
(lp6733
S'SCO1271'
p6734
aS'SCO2388'
p6735
a(lp6736
S'SCO2389'
p6737
aS'SCO6564'
p6738
aaS'SCO0549'
p6739
aS'SCO1267'
p6740
aS'SCO1272'
p6741
asS'EX_chol_LPAREN_e_RPAREN_'
p6742
(lp6743
g6
asS'DGSNt2'
p6744
(lp6745
g6
asS'NTP1'
p6746
(lp6747
S'SCO6149'
p6748
asS'THMDt2r'
p6749
(lp6750
g6
asS'IDONt2r'
p6751
(lp6752
S'SCO1680'
p6753
aS'SCO4991'
p6754
asS'CD2abc'
p6755
(lp6756
S'SCO6460'
p6757
asS'ACACT7r'
p6758
(lp6759
S'SCO6788'
p6760
aS'SCO1324'
p6761
aS'SCO4502'
p6762
aS'SCO6027'
p6763
asS'PINOSai170'
p6764
(lp6765
S'SCO1527'
p6766
asS'NTP5'
p6767
(lp6768
S'SCO6149'
p6769
asS'HISt2r'
p6770
(lp6771
S'SCO2914'
p6772
asS'PENTT'
p6773
(lp6774
S'SCO4583'
p6775
asS'PAPA120'
p6776
(lp6777
g6
asS'EX_cobalt2_LPAREN_e_RPAREN_'
p6778
(lp6779
g6
asS'EX_xylt_LPAREN_e_RPAREN_'
p6780
(lp6781
g6
asS'CADVt'
p6782
(lp6783
g6
asS'EX_h2o_LPAREN_e_RPAREN_'
p6784
(lp6785
g6
asS'REDS11'
p6786
(lp6787
S'SCO1815'
p6788
aS'SCO1345'
p6789
aS'SCO1346'
p6790
aS'SCO4501'
p6791
aS'SCO1831'
p6792
aS'SCO4681'
p6793
aS'SCO0330'
p6794
asS'REDS10'
p6795
(lp6796
S'SCO5886'
p6797
asS'PGSA141'
p6798
(lp6799
S'SCO5753'
p6800
asS'REDS12'
p6801
(lp6802
g6
asS'REDS15'
p6803
(lp6804
S'SCO1815'
p6805
aS'SCO1345'
p6806
aS'SCO1346'
p6807
aS'SCO4501'
p6808
aS'SCO1831'
p6809
aS'SCO4681'
p6810
aS'SCO0330'
p6811
asS'REDS14'
p6812
(lp6813
S'SCO5886'
p6814
asS'REDS16'
p6815
(lp6816
g6
asS'REDS19'
p6817
(lp6818
S'SCO1815'
p6819
aS'SCO1345'
p6820
aS'SCO1346'
p6821
aS'SCO4501'
p6822
aS'SCO1831'
p6823
aS'SCO4681'
p6824
aS'SCO0330'
p6825
asS'REDS18'
p6826
(lp6827
S'SCO5886'
p6828
asS'NODOx'
p6829
(lp6830
S'SCO7428'
p6831
aS'SCO7094'
p6832
asS'APG3PATi170'
p6833
(lp6834
g6
asS'NNAM'
p6835
(lp6836
S'SCO2918'
p6837
asS'ASAD'
p6838
(lp6839
S'SCO2640'
p6840
aS'SCO3614'
p6841
asS'3HAD140'
p6842
(lp6843
g6
asS'3HAD141'
p6844
(lp6845
g6
asS'NNAT'
p6846
(lp6847
S'SCO2579'
p6848
asS'RZ5PP'
p6849
(lp6850
g6
asS'MDDCP2'
p6851
(lp6852
S'SCO3408'
p6853
aS'SCO3811'
p6854
aS'SCO4847'
p6855
aS'SCO6131'
p6856
asS'MDDCP3'
p6857
(lp6858
S'SCO3408'
p6859
aS'SCO3811'
p6860
aS'SCO4847'
p6861
aS'SCO6131'
p6862
asS'ADMDC'
p6863
(lp6864
g6
asS'MDDCP1'
p6865
(lp6866
S'SCO3408'
p6867
aS'SCO3811'
p6868
aS'SCO4847'
p6869
aS'SCO6131'
p6870
asS'BTNt2i'
p6871
(lp6872
g6
asS'MDDCP4'
p6873
(lp6874
S'SCO3408'
p6875
aS'SCO3811'
p6876
aS'SCO4847'
p6877
aS'SCO6131'
p6878
asS'MDDCP5'
p6879
(lp6880
S'SCO3408'
p6881
aS'SCO3811'
p6882
aS'SCO4847'
p6883
aS'SCO6131'
p6884
asS'IDOND'
p6885
(lp6886
S'SCO1682'
p6887
asS'UDPGD'
p6888
(lp6889
S'SCO3052'
p6890
asS'EX_orot_LPAREN_e_RPAREN_'
p6891
(lp6892
g6
asS'G6PDH2'
p6893
(lp6894
S'SCO1937'
p6895
aS'SCO6661'
p6896
asS'ALAabc'
p6897
(lp6898
(lp6899
S'SCO0706'
p6900
aS'SCO0707'
p6901
aS'SCO0708'
p6902
aS'SCO0709'
p6903
aS'SCO0710'
p6904
aa(lp6905
S'SCO2008'
p6906
aS'SCO2009'
p6907
aS'SCO2010'
p6908
aS'SCO2011'
p6909
aS'SCO2012'
p6910
aa(lp6911
S'SCO7181'
p6912
aS'SCO7182'
p6913
aS'SCO7183'
p6914
aS'SCO7184'
p6915
aS'SCO7185'
p6916
aasS'3OARai110'
p6917
(lp6918
S'SCO1815'
p6919
aS'SCO1345'
p6920
aS'SCO1346'
p6921
aS'SCO4501'
p6922
aS'SCO1831'
p6923
aS'SCO4681'
p6924
aS'SCO0330'
p6925
asS'ACPPATai150'
p6926
(lp6927
g6
asS'H2SO'
p6928
(lp6929
S's0001'
p6930
asS'EX_alltn_LPAREN_e_RPAREN_'
p6931
(lp6932
g6
asS'FESR'
p6933
(lp6934
g6
asS'MTAP'
p6935
(lp6936
S'SCO3188'
p6937
asS'CYTBD2'
p6938
(lp6939
(lp6940
S'SCO3945'
p6941
aS'SCO3946'
p6942
aasS'ILETRS'
p6943
(lp6944
S'SCO2076'
p6945
asS'MALTPTabc'
p6946
(lp6947
(lp6948
S'SCO2229'
p6949
aS'SCO2230'
p6950
aS'SCO2231'
p6951
aS'SCO4240'
p6952
aasS'EARi130y'
p6953
(lp6954
S'SCO1814'
p6955
asS'EARi130x'
p6956
(lp6957
S'SCO1814'
p6958
asS'GF6PTA'
p6959
(lp6960
S'SCO2789'
p6961
aS'SCO4740'
p6962
asS'3HBCOAHL'
p6963
(lp6964
g6
asS'GLYt4'
p6965
(lp6966
S'SCO7197'
p6967
asS'CDPMEK'
p6968
(lp6969
S'SCO3148'
p6970
as.